Archive member included because of file (symbol)

./build/core.a(exception_vectors.o)
                              (call_user_start)
./build/sdklib/libmain.a(app_main.o)
                              ./build/core.a(exception_vectors.o) (sdk_user_fatal_exception_handler)
./build/sdklib/libmain.a(ets_timer.o)
                              ./build/sdklib/libmain.a(app_main.o) (sdk_ets_timer_init)
./build/sdklib/libmain.a(misc.o)
                              ./build/sdklib/libmain.a(app_main.o) (sdk_os_install_putc1)
./build/sdklib/libmain.a(spi_flash.o)
                              ./build/sdklib/libmain.a(app_main.o) (sdk_flashchip)
./build/sdklib/libmain.a(uart.o)
                              ./build/sdklib/libmain.a(app_main.o) (sdk_uart_div_modify)
./build/sdklib/libmain.a(user_interface.o)
                              ./build/sdklib/libmain.a(app_main.o) (sdk_rst_if)
./build/sdklib/libmain.a(os_cpu_a.o)
                              ./build/core.a(exception_vectors.o) (sdk__xt_int_enter)
./build/sdklib/libmain.a(xtensa_context.o)
                              ./build/sdklib/libmain.a(os_cpu_a.o) (sdk__xt_context_save)
./build/sdklib/libmain.a(timers.o)
                              ./build/sdklib/libmain.a(user_interface.o) (sdk_os_timer_setfn)
./build/sdklib/libnet80211.a(ieee80211.o)
                              ./build/sdklib/libmain.a(app_main.o) (sdk_g_ic)
./build/sdklib/libnet80211.a(ieee80211_crypto.o)
                              ./build/sdklib/libnet80211.a(ieee80211.o) (sdk_ieee80211_crypto_attach)
./build/sdklib/libnet80211.a(ieee80211_hostap.o)
                              ./build/sdklib/libmain.a(app_main.o) (sdk_wifi_softap_start)
./build/sdklib/libnet80211.a(ieee80211_ht.o)
                              ./build/sdklib/libmain.a(user_interface.o) (sdk_ieee80211_ht_attach)
./build/sdklib/libnet80211.a(ieee80211_input.o)
                              ./build/sdklib/libnet80211.a(ieee80211_hostap.o) (sdk_ieee80211_decap)
./build/sdklib/libnet80211.a(ieee80211_output.o)
                              ./build/sdklib/libnet80211.a(ieee80211_ht.o) (sdk_ieee80211_mgmt_output)
./build/sdklib/libnet80211.a(ieee80211_phy.o)
                              ./build/sdklib/libnet80211.a(ieee80211.o) (sdk_ieee80211_get_ratetable)
./build/sdklib/libnet80211.a(ieee80211_power.o)
                              ./build/sdklib/libnet80211.a(ieee80211_hostap.o) (sdk_ieee80211_psq_init)
./build/sdklib/libnet80211.a(ieee80211_proto.o)
                              ./build/sdklib/libnet80211.a(ieee80211_hostap.o) (sdk_ieee80211_addr_bcast)
./build/sdklib/libnet80211.a(ieee80211_scan.o)
                              ./build/sdklib/libmain.a(user_interface.o) (sdk_scannum)
./build/sdklib/libnet80211.a(ieee80211_sta.o)
                              ./build/sdklib/libmain.a(user_interface.o) (sdk_ieee80211_sta_new_state)
./build/sdklib/libnet80211.a(wl_chm.o)
                              ./build/sdklib/libnet80211.a(ieee80211.o) (sdk_chm_init)
./build/sdklib/libnet80211.a(wl_cnx.o)
                              ./build/sdklib/libmain.a(user_interface.o) (sdk_sta_con_timer)
./build/sdklib/libnet80211.a(ieee80211_action.o)
                              ./build/sdklib/libnet80211.a(ieee80211_ht.o) (sdk_ieee80211_send_action_register)
./build/sdklib/libnet80211.a(ieee80211_ets.o)
                              ./build/sdklib/libnet80211.a(ieee80211_ht.o) (sdk_ieee80211_getmgtframe)
./build/sdklib/libphy.a(phy.o)
                              ./build/sdklib/libnet80211.a(wl_chm.o) (sdk_phy_change_channel)
./build/sdklib/libphy.a(phy_chip_v6_ana.o)
                              ./build/sdklib/libmain.a(user_interface.o) (sdk_test_tout)
./build/sdklib/libphy.a(phy_chip_v6.o)
                              ./build/sdklib/libphy.a(phy_chip_v6_ana.o) (sdk_chip6_sleep_params)
./build/sdklib/libphy.a(phy_chip_v6_cal.o)
                              ./build/sdklib/libphy.a(phy_chip_v6.o) (sdk_loop_pwctrl_pwdet_error_accum_high_power)
./build/sdklib/libphy.a(phy_chip_v6_unused.o)
                              ./build/sdklib/libphy.a(phy_chip_v6.o) (sdk_chip_v6_set_sense)
./build/sdklib/libphy.a(phy_sleep.o)
                              ./build/sdklib/libphy.a(phy_chip_v6.o) (sdk_pm_set_sleep_cycles)
./build/sdklib/libphy.a(phy_chip_v5_romfunc.o)
                              ./build/sdklib/libphy.a(phy_chip_v6_ana.o) (sdk_g_phyFuns)
./build/sdklib/libphy.a(phy_chip_v5_ana_romfunc.o)
                              ./build/sdklib/libphy.a(phy_chip_v5_romfunc.o) (sdk_rom_ana_inf_gating_en)
./build/sdklib/libphy.a(phy_chip_v5_cal_romfunc.o)
                              ./build/sdklib/libphy.a(phy_chip_v5_romfunc.o) (sdk_rom_cal_tos_v50)
./build/sdklib/libpp.a(esf_buf.o)
                              ./build/sdklib/libnet80211.a(ieee80211_output.o) (sdk_esf_buf_alloc)
./build/sdklib/libpp.a(if_hwctrl.o)
                              ./build/sdklib/libnet80211.a(ieee80211_hostap.o) (sdk_ic_set_vif)
./build/sdklib/libpp.a(lmac.o)
                              ./build/sdklib/libmain.a(app_main.o) (sdk_lmacInit)
./build/sdklib/libpp.a(pm.o)  ./build/sdklib/libmain.a(user_interface.o) (sdk_pm_rtc_clock_cali_proc)
./build/sdklib/libpp.a(pp.o)  ./build/sdklib/libpp.a(pm.o) (sdk_pend_flag_noise_check)
./build/sdklib/libpp.a(rate_control.o)
                              ./build/sdklib/libpp.a(lmac.o) (sdk_RC_SetBasicRate)
./build/sdklib/libpp.a(trc.o)
                              ./build/sdklib/libpp.a(if_hwctrl.o) (sdk_rcUpdatePhyMode)
./build/sdklib/libpp.a(wdev.o)
                              ./build/sdklib/libpp.a(esf_buf.o) (sdk_wDevCtrl)
./build/sdklib/libwpa.a(ap_config.o)
                              ./build/sdklib/libnet80211.a(ieee80211_hostap.o) (sdk_hostapd_setup_wpa_psk)
./build/sdklib/libwpa.a(common.o)
                              ./build/sdklib/libmain.a(user_interface.o) (sdk_hexstr2bin)
./build/sdklib/libwpa.a(os_xtensa.o)
                              ./build/sdklib/libwpa.a(common.o) (sdk_os_get_time)
./build/sdklib/libwpa.a(sha1-pbkdf2.o)
                              ./build/sdklib/libmain.a(user_interface.o) (sdk_pbkdf2_sha1)
./build/sdklib/libwpa.a(wpa_auth.o)
                              ./build/sdklib/libnet80211.a(ieee80211_hostap.o) (sdk_wpa_init)
./build/sdklib/libwpa.a(wpa_auth_ie.o)
                              ./build/sdklib/libwpa.a(wpa_auth.o) (sdk_wpa_auth_gen_wpa_ie)
./build/sdklib/libwpa.a(wpa.o)
                              ./build/sdklib/libnet80211.a(ieee80211_sta.o) (sdk_wpa_sm_rx_eapol)
./build/sdklib/libwpa.a(wpa_common.o)
                              ./build/sdklib/libwpa.a(wpa_auth_ie.o) (sdk_wpa_parse_wpa_ie_rsn)
./build/sdklib/libwpa.a(wpa_debug.o)
                              ./build/sdklib/libwpa.a(wpa_auth.o) (sdk_eloop_cancel_timeout)
./build/sdklib/libwpa.a(wpa_ie.o)
                              ./build/sdklib/libnet80211.a(ieee80211_scan.o) (sdk_wpa_parse_wpa_ie)
./build/sdklib/libwpa.a(wpa_main.o)
                              ./build/sdklib/libnet80211.a(wl_cnx.o) (sdk_ppInstallKey)
./build/sdklib/libwpa.a(wpas_glue.o)
                              ./build/sdklib/libwpa.a(wpa.o) (sdk_wpa_sm_alloc_eapol)
./build/sdklib/libwpa.a(aes-unwrap.o)
                              ./build/sdklib/libwpa.a(wpa.o) (sdk_aes_unwrap)
./build/sdklib/libwpa.a(aes-wrap.o)
                              ./build/sdklib/libwpa.a(wpa_auth.o) (sdk_aes_wrap)
./build/sdklib/libwpa.a(md5.o)
                              ./build/sdklib/libwpa.a(wpa_common.o) (sdk_hmac_md5)
./build/sdklib/libwpa.a(md5-internal.o)
                              ./build/sdklib/libwpa.a(md5.o) (sdk_md5_vector)
./build/sdklib/libwpa.a(rc4.o)
                              ./build/sdklib/libwpa.a(wpa_auth.o) (sdk_rc4_skip)
./build/sdklib/libwpa.a(sha1.o)
                              ./build/sdklib/libwpa.a(sha1-pbkdf2.o) (sdk_hmac_sha1_vector)
./build/sdklib/libwpa.a(sha1-internal.o)
                              ./build/sdklib/libwpa.a(sha1.o) (sdk_sha1_vector)
./build/sdklib/libwpa.a(aes-internal-dec.o)
                              ./build/sdklib/libwpa.a(aes-unwrap.o) (sdk_aes_decrypt_init)
./build/sdklib/libwpa.a(aes-internal-enc.o)
                              ./build/sdklib/libwpa.a(aes-wrap.o) (sdk_aes_encrypt_init)
./build/sdklib/libwpa.a(aes-internal.o)
                              ./build/sdklib/libwpa.a(aes-internal-dec.o) (sdk_Te0)
./build/program.a(http_get_ssl.o)
                              ./build/sdklib/libmain.a(app_main.o) (user_init)
./build/freertos.a(queue.o)   ./build/sdklib/libmain.a(ets_timer.o) (xQueueGenericCreate)
./build/freertos.a(tasks.o)   ./build/sdklib/libmain.a(os_cpu_a.o) (pxCurrentTCB)
./build/freertos.a(timers.o)  ./build/freertos.a(tasks.o) (xTimerCreateTimerTask)
./build/freertos.a(port.o)    ./build/freertos.a(tasks.o) (pxPortInitialiseStack)
./build/freertos.a(list.o)    ./build/freertos.a(queue.o) (vListInitialise)
./build/lwip.a(esp_interface.o)
                              ./build/sdklib/libnet80211.a(ieee80211_hostap.o) (ethernetif_init)
./build/lwip.a(netdb.o)       ./build/program.a(http_get_ssl.o) (lwip_freeaddrinfo)
./build/lwip.a(sockets.o)     ./build/program.a(http_get_ssl.o) (lwip_close)
./build/lwip.a(tcpip.o)       ./build/sdklib/libnet80211.a(ieee80211_hostap.o) (tcpip_input)
./build/lwip.a(dhcp.o)        ./build/sdklib/libnet80211.a(wl_cnx.o) (dhcp_release)
./build/lwip.a(dns.o)         ./build/lwip.a(dhcp.o) (dns_setserver)
./build/lwip.a(init.o)        ./build/lwip.a(tcpip.o) (lwip_init)
./build/lwip.a(memp.o)        ./build/lwip.a(netdb.o) (memp_sizes)
./build/lwip.a(netif.o)       ./build/lwip.a(init.o) (netif_init)
./build/lwip.a(pbuf.o)        ./build/sdklib/libnet80211.a(ieee80211_power.o) (pbuf_free)
./build/lwip.a(stats.o)       ./build/lwip.a(init.o) (stats_init)
./build/lwip.a(tcp.o)         ./build/lwip.a(init.o) (tcp_init)
./build/lwip.a(tcp_out.o)     ./build/lwip.a(tcp.o) (tcp_enqueue_flags)
./build/lwip.a(timers.o)      ./build/lwip.a(tcpip.o) (sys_timeout)
./build/lwip.a(udp.o)         ./build/lwip.a(init.o) (udp_init)
./build/lwip.a(icmp.o)        ./build/lwip.a(udp.o) (icmp_dest_unreach)
./build/lwip.a(inet_chksum.o)
                              ./build/lwip.a(tcp_out.o) (inet_chksum_pseudo)
./build/lwip.a(ip_addr.o)     ./build/lwip.a(udp.o) (ip4_addr_isbroadcast)
./build/lwip.a(ip.o)          ./build/lwip.a(tcp.o) (ip_route)
./build/lwip.a(ip_frag.o)     ./build/lwip.a(ip.o) (ip_frag)
./build/lwip.a(etharp.o)      ./build/lwip.a(timers.o) (etharp_tmr)
./build/lwip.a(sys_arch.o)    ./build/lwip.a(tcpip.o) (sys_mbox_new)
./build/lwip.a(api_lib.o)     ./build/lwip.a(sockets.o) (netconn_new_with_proto_and_callback)
./build/lwip.a(api_msg.o)     ./build/lwip.a(api_lib.o) (do_newconn)
./build/lwip.a(netbuf.o)      ./build/lwip.a(sockets.o) (netbuf_delete)
./build/lwip.a(raw.o)         ./build/lwip.a(ip.o) (raw_input)
./build/lwip.a(tcp_in.o)      ./build/lwip.a(tcp_out.o) (tcp_input_pcb)
./build/axtls.a(tls1.o)       ./build/program.a(http_get_ssl.o) (ssl_ctx_new)
./build/axtls.a(tls1_clnt.o)  ./build/axtls.a(tls1.o) (do_client_connect)
./build/axtls.a(tls1_svr.o)   ./build/axtls.a(tls1.o) (do_svr_handshake)
./build/axtls.a(x509.o)       ./build/axtls.a(tls1.o) (x509_free)
./build/axtls.a(axtls_esp_stubs.o)
                              ./build/axtls.a(tls1.o) (time)
./build/axtls.a(aes.o)        ./build/axtls.a(tls1.o) (AES_set_key)
./build/axtls.a(bigint.o)     ./build/axtls.a(x509.o) (bi_clear_cache)
./build/axtls.a(crypto_misc.o)
                              ./build/axtls.a(tls1.o) (RNG_initialize)
./build/axtls.a(hmac.o)       ./build/axtls.a(tls1.o) (hmac_md5)
./build/axtls.a(md5.o)        ./build/axtls.a(tls1.o) (MD5_Init)
./build/axtls.a(rc4.o)        ./build/axtls.a(tls1.o) (RC4_setup)
./build/axtls.a(rsa.o)        ./build/axtls.a(tls1.o) (RSA_free)
./build/axtls.a(sha1.o)       ./build/axtls.a(tls1.o) (SHA1_Init)
./build/axtls.a(sha256.o)     ./build/axtls.a(x509.o) (SHA256_Init)
./build/axtls.a(sha384.o)     ./build/axtls.a(x509.o) (SHA384_Init)
./build/axtls.a(sha512.o)     ./build/axtls.a(x509.o) (SHA512_Init)
./build/axtls.a(asn1.o)       ./build/axtls.a(x509.o) (get_asn1_length)
./build/axtls.a(loader.o)     ./build/axtls.a(tls1.o) (load_key_certs)
./build/core.a(sdk_compat.o)  ./build/sdklib/libmain.a(app_main.o) (zalloc)
/root/ESP8266/esp-open-sdk/xtensa-lx106-elf/xtensa-lx106-elf/sysroot/usr/lib/libhal.a(clock.o)
                              ./build/sdklib/libmain.a(misc.o) (xthal_get_ccount)
/root/ESP8266/esp-open-sdk/xtensa-lx106-elf/xtensa-lx106-elf/sysroot/usr/lib/libhal.a(int_asm--set_intset.o)
                              ./build/freertos.a(port.o) (xthal_set_intset)
/root/ESP8266/esp-open-sdk/xtensa-lx106-elf/lib/gcc/xtensa-lx106-elf/4.8.2/libgcc.a(_divsi3.o)
                              ./build/sdklib/libnet80211.a(ieee80211.o) (__divsi3)
/root/ESP8266/esp-open-sdk/xtensa-lx106-elf/lib/gcc/xtensa-lx106-elf/4.8.2/libgcc.a(_modsi3.o)
                              ./build/sdklib/libnet80211.a(ieee80211_ht.o) (__modsi3)
/root/ESP8266/esp-open-sdk/xtensa-lx106-elf/lib/gcc/xtensa-lx106-elf/4.8.2/libgcc.a(_udivsi3.o)
                              ./build/sdklib/libmain.a(app_main.o) (__udivsi3)
/root/ESP8266/esp-open-sdk/xtensa-lx106-elf/lib/gcc/xtensa-lx106-elf/4.8.2/libgcc.a(_umodsi3.o)
                              ./build/sdklib/libmain.a(spi_flash.o) (__umodsi3)
/root/ESP8266/esp-open-sdk/xtensa-lx106-elf/lib/gcc/xtensa-lx106-elf/4.8.2/libgcc.a(_ashrdi3.o)
                              ./build/sdklib/libphy.a(phy_chip_v6.o) (__ashrdi3)
/root/ESP8266/esp-open-sdk/xtensa-lx106-elf/lib/gcc/xtensa-lx106-elf/4.8.2/libgcc.a(_addsubsf3.o)
                              ./build/sdklib/libphy.a(phy_chip_v6_ana.o) (__addsf3)
/root/ESP8266/esp-open-sdk/xtensa-lx106-elf/lib/gcc/xtensa-lx106-elf/4.8.2/libgcc.a(_mulsf3.o)
                              ./build/sdklib/libphy.a(phy_chip_v6_ana.o) (__mulsf3)
/root/ESP8266/esp-open-sdk/xtensa-lx106-elf/lib/gcc/xtensa-lx106-elf/4.8.2/libgcc.a(_divsf3.o)
                              ./build/sdklib/libphy.a(phy_chip_v6_ana.o) (__divsf3)
/root/ESP8266/esp-open-sdk/xtensa-lx106-elf/lib/gcc/xtensa-lx106-elf/4.8.2/libgcc.a(_fixsfsi.o)
                              ./build/sdklib/libphy.a(phy_chip_v6.o) (__fixsfsi)
/root/ESP8266/esp-open-sdk/xtensa-lx106-elf/lib/gcc/xtensa-lx106-elf/4.8.2/libgcc.a(_fixunssfsi.o)
                              ./build/sdklib/libphy.a(phy_chip_v6_ana.o) (__fixunssfsi)
/root/ESP8266/esp-open-sdk/xtensa-lx106-elf/lib/gcc/xtensa-lx106-elf/4.8.2/libgcc.a(_floatsisf.o)
                              ./build/sdklib/libphy.a(phy_chip_v6.o) (__floatunsisf)
/root/ESP8266/esp-open-sdk/xtensa-lx106-elf/lib/gcc/xtensa-lx106-elf/4.8.2/libgcc.a(_addsubdf3.o)
                              ./build/sdklib/libphy.a(phy_chip_v5_ana_romfunc.o) (__adddf3)
/root/ESP8266/esp-open-sdk/xtensa-lx106-elf/lib/gcc/xtensa-lx106-elf/4.8.2/libgcc.a(_muldf3.o)
                              ./build/sdklib/libphy.a(phy_chip_v6.o) (__muldf3)
/root/ESP8266/esp-open-sdk/xtensa-lx106-elf/lib/gcc/xtensa-lx106-elf/4.8.2/libgcc.a(_divdf3.o)
                              ./build/sdklib/libphy.a(phy_chip_v6_ana.o) (__divdf3)
/root/ESP8266/esp-open-sdk/xtensa-lx106-elf/lib/gcc/xtensa-lx106-elf/4.8.2/libgcc.a(_fixdfsi.o)
                              ./build/sdklib/libphy.a(phy_chip_v6.o) (__fixdfsi)
/root/ESP8266/esp-open-sdk/xtensa-lx106-elf/lib/gcc/xtensa-lx106-elf/4.8.2/libgcc.a(_floatsidf.o)
                              ./build/sdklib/libphy.a(phy_chip_v6_ana.o) (__floatunsidf)
/root/ESP8266/esp-open-sdk/xtensa-lx106-elf/lib/gcc/xtensa-lx106-elf/4.8.2/libgcc.a(_truncdfsf2.o)
                              ./build/sdklib/libphy.a(phy_chip_v6_ana.o) (__truncdfsf2)
/root/ESP8266/esp-open-sdk/xtensa-lx106-elf/lib/gcc/xtensa-lx106-elf/4.8.2/libgcc.a(_extendsfdf2.o)
                              ./build/sdklib/libphy.a(phy_chip_v5_ana_romfunc.o) (__extendsfdf2)
/root/ESP8266/esp-open-sdk/xtensa-lx106-elf/lib/gcc/xtensa-lx106-elf/4.8.2/libgcc.a(_muldi3.o)
                              ./build/sdklib/libphy.a(phy_chip_v6.o) (__muldi3)
/root/ESP8266/esp-open-sdk/xtensa-lx106-elf/lib/gcc/xtensa-lx106-elf/4.8.2/libgcc.a(_popcountsi2.o)
                              ./build/sdklib/libpp.a(if_hwctrl.o) (__popcountsi2)
/root/ESP8266/esp-open-sdk/xtensa-lx106-elf/lib/gcc/xtensa-lx106-elf/4.8.2/libgcc.a(_divdi3.o)
                              ./build/sdklib/libphy.a(phy_chip_v6_cal.o) (__divdi3)
/root/ESP8266/esp-open-sdk/xtensa-lx106-elf/lib/gcc/xtensa-lx106-elf/4.8.2/libgcc.a(_udivdi3.o)
                              ./build/axtls.a(bigint.o) (__udivdi3)
/root/ESP8266/esp-open-sdk/xtensa-lx106-elf/lib/gcc/xtensa-lx106-elf/4.8.2/libgcc.a(_umoddi3.o)
                              ./build/sdklib/libpp.a(pm.o) (__umoddi3)
/root/ESP8266/esp-open-sdk/xtensa-lx106-elf/lib/gcc/xtensa-lx106-elf/4.8.2/libgcc.a(_umulsidi3.o)
                              /root/ESP8266/esp-open-sdk/xtensa-lx106-elf/lib/gcc/xtensa-lx106-elf/4.8.2/libgcc.a(_muldi3.o) (__umulsidi3)
/root/ESP8266/esp-open-sdk/xtensa-lx106-elf/lib/gcc/xtensa-lx106-elf/4.8.2/libgcc.a(_popcount_tab.o)
                              /root/ESP8266/esp-open-sdk/xtensa-lx106-elf/lib/gcc/xtensa-lx106-elf/4.8.2/libgcc.a(_popcountsi2.o) (__popcount_tab)
../../libc/xtensa-lx106-elf/lib/libc.a(lib_a-atoi.o)
                              ./build/lwip.a(netdb.o) (atoi)
../../libc/xtensa-lx106-elf/lib/libc.a(lib_a-bzero.o)
                              ./build/sdklib/libmain.a(app_main.o) (bzero)
../../libc/xtensa-lx106-elf/lib/libc.a(lib_a-calloc.o)
                              ./build/axtls.a(tls1.o) (calloc)
../../libc/xtensa-lx106-elf/lib/libc.a(lib_a-errno.o)
                              ./build/program.a(http_get_ssl.o) (__errno)
../../libc/xtensa-lx106-elf/lib/libc.a(lib_a-impure.o)
                              ../../libc/xtensa-lx106-elf/lib/libc.a(lib_a-calloc.o) (_impure_ptr)
../../libc/xtensa-lx106-elf/lib/libc.a(lib_a-malloc.o)
                              ./build/sdklib/libmain.a(app_main.o) (malloc)
../../libc/xtensa-lx106-elf/lib/libc.a(lib_a-memcmp.o)
                              ./build/sdklib/libmain.a(user_interface.o) (memcmp)
../../libc/xtensa-lx106-elf/lib/libc.a(lib_a-memcpy.o)
                              ./build/sdklib/libmain.a(app_main.o) (memcpy)
../../libc/xtensa-lx106-elf/lib/libc.a(lib_a-memset.o)
                              ./build/sdklib/libmain.a(app_main.o) (memset)
../../libc/xtensa-lx106-elf/lib/libc.a(lib_a-mstats.o)
                              ./build/freertos.a(port.o) (mallinfo)
../../libc/xtensa-lx106-elf/lib/libc.a(lib_a-nano-callocr.o)
                              ../../libc/xtensa-lx106-elf/lib/libc.a(lib_a-calloc.o) (_calloc_r)
../../libc/xtensa-lx106-elf/lib/libc.a(lib_a-nano-freer.o)
                              ../../libc/xtensa-lx106-elf/lib/libc.a(lib_a-malloc.o) (_free_r)
../../libc/xtensa-lx106-elf/lib/libc.a(lib_a-nano-mallinfor.o)
                              ../../libc/xtensa-lx106-elf/lib/libc.a(lib_a-mstats.o) (_mallinfo_r)
../../libc/xtensa-lx106-elf/lib/libc.a(lib_a-nano-mallocr.o)
                              ../../libc/xtensa-lx106-elf/lib/libc.a(lib_a-nano-freer.o) (__malloc_free_list)
../../libc/xtensa-lx106-elf/lib/libc.a(lib_a-nano-malloptr.o)
                              ../../libc/xtensa-lx106-elf/lib/libc.a(lib_a-mstats.o) (_mallopt_r)
../../libc/xtensa-lx106-elf/lib/libc.a(lib_a-nano-mallstatsr.o)
                              ../../libc/xtensa-lx106-elf/lib/libc.a(lib_a-mstats.o) (_malloc_stats_r)
../../libc/xtensa-lx106-elf/lib/libc.a(lib_a-printf.o)
                              ./build/sdklib/libmain.a(app_main.o) (printf)
../../libc/xtensa-lx106-elf/lib/libc.a(lib_a-putchar.o)
                              ./build/program.a(http_get_ssl.o) (putchar)
../../libc/xtensa-lx106-elf/lib/libc.a(lib_a-putc.o)
                              ../../libc/xtensa-lx106-elf/lib/libc.a(lib_a-putchar.o) (_putc_r)
../../libc/xtensa-lx106-elf/lib/libc.a(lib_a-puts.o)
                              ./build/program.a(http_get_ssl.o) (puts)
../../libc/xtensa-lx106-elf/lib/libc.a(lib_a-rand.o)
                              ./build/axtls.a(crypto_misc.o) (srand)
../../libc/xtensa-lx106-elf/lib/libc.a(lib_a-realloc.o)
                              ./build/axtls.a(x509.o) (realloc)
../../libc/xtensa-lx106-elf/lib/libc.a(lib_a-sprintf.o)
                              ./build/sdklib/libmain.a(user_interface.o) (sprintf)
../../libc/xtensa-lx106-elf/lib/libc.a(lib_a-strcmp.o)
                              ./build/lwip.a(dns.o) (strcmp)
../../libc/xtensa-lx106-elf/lib/libc.a(lib_a-strcpy.o)
                              ./build/axtls.a(tls1.o) (strcpy)
../../libc/xtensa-lx106-elf/lib/libc.a(lib_a-strlen.o)
                              ./build/sdklib/libmain.a(user_interface.o) (strlen)
../../libc/xtensa-lx106-elf/lib/libc.a(lib_a-strncmp.o)
                              ./build/sdklib/libmain.a(user_interface.o) (strncmp)
../../libc/xtensa-lx106-elf/lib/libc.a(lib_a-strncpy.o)
                              ./build/sdklib/libnet80211.a(ieee80211_scan.o) (strncpy)
../../libc/xtensa-lx106-elf/lib/libc.a(lib_a-strrchr.o)
                              ./build/sdklib/libwpa.a(common.o) (strrchr)
../../libc/xtensa-lx106-elf/lib/libc.a(lib_a-strtol.o)
                              ../../libc/xtensa-lx106-elf/lib/libc.a(lib_a-atoi.o) (_strtol_r)
../../libc/xtensa-lx106-elf/lib/libc.a(lib_a-syssbrk.o)
                              ./build/freertos.a(port.o) (sbrk)
../../libc/xtensa-lx106-elf/lib/libc.a(lib_a-wbuf.o)
                              ../../libc/xtensa-lx106-elf/lib/libc.a(lib_a-putc.o) (__swbuf_r)
../../libc/xtensa-lx106-elf/lib/libc.a(lib_a-wsetup.o)
                              ../../libc/xtensa-lx106-elf/lib/libc.a(lib_a-wbuf.o) (__swsetup_r)
../../libc/xtensa-lx106-elf/lib/libc.a(lock.o)
                              ../../libc/xtensa-lx106-elf/lib/libc.a(lib_a-putc.o) (_lock_acquire_recursive)
../../libc/xtensa-lx106-elf/lib/libc.a(lib_a-ctype_.o)
                              ../../libc/xtensa-lx106-elf/lib/libc.a(lib_a-strtol.o) (__ctype_ptr__)
../../libc/xtensa-lx106-elf/lib/libc.a(lib_a-fflush.o)
                              ../../libc/xtensa-lx106-elf/lib/libc.a(lib_a-wbuf.o) (_fflush_r)
../../libc/xtensa-lx106-elf/lib/libc.a(lib_a-findfp.o)
                              ../../libc/xtensa-lx106-elf/lib/libc.a(lib_a-putc.o) (__sinit)
../../libc/xtensa-lx106-elf/lib/libc.a(lib_a-fprintf.o)
                              ../../libc/xtensa-lx106-elf/lib/libc.a(lib_a-mstats.o) (fiprintf)
../../libc/xtensa-lx106-elf/lib/libc.a(lib_a-fvwrite.o)
                              ../../libc/xtensa-lx106-elf/lib/libc.a(lib_a-puts.o) (__sfvwrite_r)
../../libc/xtensa-lx106-elf/lib/libc.a(lib_a-fwalk.o)
                              ../../libc/xtensa-lx106-elf/lib/libc.a(lib_a-findfp.o) (_fwalk)
../../libc/xtensa-lx106-elf/lib/libc.a(lib_a-makebuf.o)
                              ../../libc/xtensa-lx106-elf/lib/libc.a(lib_a-wsetup.o) (__smakebuf_r)
../../libc/xtensa-lx106-elf/lib/libc.a(lib_a-memchr.o)
                              ../../libc/xtensa-lx106-elf/lib/libc.a(lib_a-fvwrite.o) (memchr)
../../libc/xtensa-lx106-elf/lib/libc.a(lib_a-memmove.o)
                              ../../libc/xtensa-lx106-elf/lib/libc.a(lib_a-fvwrite.o) (memmove)
../../libc/xtensa-lx106-elf/lib/libc.a(lib_a-nano-reallocr.o)
                              ../../libc/xtensa-lx106-elf/lib/libc.a(lib_a-realloc.o) (_realloc_r)
../../libc/xtensa-lx106-elf/lib/libc.a(lib_a-nano-svfprintf.o)
                              ../../libc/xtensa-lx106-elf/lib/libc.a(lib_a-sprintf.o) (_svfprintf_r)
../../libc/xtensa-lx106-elf/lib/libc.a(lib_a-nano-vfprintf_i.o)
                              ../../libc/xtensa-lx106-elf/lib/libc.a(lib_a-nano-svfprintf.o) (_printf_i)
../../libc/xtensa-lx106-elf/lib/libc.a(lib_a-nano-vfprintf.o)
                              ../../libc/xtensa-lx106-elf/lib/libc.a(lib_a-printf.o) (_vfprintf_r)
../../libc/xtensa-lx106-elf/lib/libc.a(lib_a-stdio.o)
                              ../../libc/xtensa-lx106-elf/lib/libc.a(lib_a-findfp.o) (__sread)
../../libc/xtensa-lx106-elf/lib/libc.a(lib_a-strchr.o)
                              ../../libc/xtensa-lx106-elf/lib/libc.a(lib_a-strrchr.o) (strchr)
../../libc/xtensa-lx106-elf/lib/libc.a(isatty.o)
                              ../../libc/xtensa-lx106-elf/lib/libc.a(lib_a-makebuf.o) (_isatty_r)
../../libc/xtensa-lx106-elf/lib/libc.a(lib_a-fclose.o)
                              ../../libc/xtensa-lx106-elf/lib/libc.a(lib_a-findfp.o) (_fclose_r)
../../libc/xtensa-lx106-elf/lib/libc.a(lib_a-fputwc.o)
                              ../../libc/xtensa-lx106-elf/lib/libc.a(lib_a-nano-vfprintf.o) (_fputwc_r)
../../libc/xtensa-lx106-elf/lib/libc.a(lib_a-locale.o)
                              ../../libc/xtensa-lx106-elf/lib/libc.a(lib_a-fputwc.o) (__locale_mb_cur_max)
../../libc/xtensa-lx106-elf/lib/libc.a(lib_a-nano-msizer.o)
                              ../../libc/xtensa-lx106-elf/lib/libc.a(lib_a-nano-reallocr.o) (_malloc_usable_size_r)
../../libc/xtensa-lx106-elf/lib/libc.a(lib_a-wcrtomb.o)
                              ../../libc/xtensa-lx106-elf/lib/libc.a(lib_a-fputwc.o) (_wcrtomb_r)
../../libc/xtensa-lx106-elf/lib/libc.a(lib_a-wctomb_r.o)
                              ../../libc/xtensa-lx106-elf/lib/libc.a(lib_a-wcrtomb.o) (__wctomb)
./build/sdklib/libnet80211.a(ieee80211_crypto_ccmp.o)
                              ./build/sdklib/libwpa.a(wpa_auth.o) (sdk_ccmp)
./build/sdklib/libnet80211.a(ieee80211_crypto_tkip.o)
                              ./build/sdklib/libwpa.a(wpa_auth.o) (sdk_tkip)
./build/sdklib/libnet80211.a(ieee80211_crypto_wep.o)
                              ./build/sdklib/libwpa.a(wpa_auth.o) (sdk_wep)
./build/core.a(newlib_syscalls.o)
                              ../../libc/xtensa-lx106-elf/lib/libc.a(lib_a-nano-mallinfor.o) (_sbrk_r)

Allocating common symbols
Common symbol       size              file

current_iphdr_src   0x4               ./build/lwip.a(ip.o)
netif_list          0x4               ./build/lwip.a(netif.o)
tcp_active_pcbs_changed
                    0x1               ./build/lwip.a(tcp.o)
tcp_active_pcbs     0x4               ./build/lwip.a(tcp.o)
udp_pcbs            0x4               ./build/lwip.a(udp.o)
current_netif       0x4               ./build/lwip.a(ip.o)
level1_int_disabled
                    0x1               ./build/freertos.a(port.o)
tcp_ticks           0x4               ./build/lwip.a(tcp.o)
tcp_listen_pcbs     0x4               ./build/lwip.a(tcp.o)
isr                 0x40              ./build/freertos.a(port.o)
current_iphdr_dest  0x4               ./build/lwip.a(ip.o)
cpu_sr              0x4               ./build/freertos.a(port.o)
tcp_tmp_pcb         0x4               ./build/lwip.a(tcp.o)
h_errno             0x4               ./build/lwip.a(netdb.o)
tcp_input_pcb       0x4               ./build/lwip.a(tcp_in.o)
current_header      0x4               ./build/lwip.a(ip.o)
dhcp_rx_options_given
                    0xa               ./build/lwip.a(dhcp.o)
tcp_bound_pcbs      0x4               ./build/lwip.a(tcp.o)
tcp_tw_pcbs         0x4               ./build/lwip.a(tcp.o)
lwip_stats          0xba              ./build/lwip.a(stats.o)
netif_default       0x4               ./build/lwip.a(netif.o)
dhcp_rx_options_val
                    0x28              ./build/lwip.a(dhcp.o)

Memory Configuration

Name             Origin             Length             Attributes
dport0_0_seg     0x000000003ff00000 0x0000000000000010
dram0_0_seg      0x000000003ffe8000 0x0000000000014000
iram1_0_seg      0x0000000040100000 0x0000000000008000
irom0_0_seg      0x0000000040240000 0x00000000001fc000
*default*        0x0000000000000000 0xffffffffffffffff

Linker script and memory map

START GROUP
LOAD ./build/program.a
LOAD ./build/freertos.a
LOAD ./build/lwip.a
LOAD ./build/axtls.a
LOAD ./build/core.a
LOAD /root/ESP8266/esp-open-sdk/xtensa-lx106-elf/xtensa-lx106-elf/sysroot/usr/lib/libhal.a
LOAD /root/ESP8266/esp-open-sdk/xtensa-lx106-elf/lib/gcc/xtensa-lx106-elf/4.8.2/libgcc.a
LOAD ../../libc/xtensa-lx106-elf/lib/libc.a
LOAD ./build/sdklib/libmain.a
LOAD ./build/sdklib/libnet80211.a
LOAD ./build/sdklib/libphy.a
LOAD ./build/sdklib/libpp.a
LOAD ./build/sdklib/libwpa.a
END GROUP
                0x00000000401063b0                pvPortMalloc = malloc
                0x00000000401063cc                vPortFree = free
                0x00000000401009d8                _lock_acquire = vPortEnterCritical
                0x00000000401009d8                _lock_acquire_recursive = vPortEnterCritical
                0x00000000401009d8                _lock_try_acquire = vPortEnterCritical
                0x00000000401009d8                _lock_try_acquire_recursive = vPortEnterCritical
                0x0000000040100a00                _lock_release = vPortExitCritical
                0x0000000040100a00                _lock_release_recursive = vPortExitCritical
                0x00000000401067c0                ets_printf = printf
                0x0000000040000000                PROVIDE (_memmap_vecbase_reset, 0x40000000)
                0x0000000000000110                _memmap_cacheattr_wb_base = 0x110
                0x0000000000000110                _memmap_cacheattr_wt_base = 0x110
                0x0000000000000220                _memmap_cacheattr_bp_base = 0x220
                0x00000000fffff00f                _memmap_cacheattr_unused_mask = 0xfffff00f
                0x000000002222211f                _memmap_cacheattr_wb_trapnull = 0x2222211f
                0x000000002222211f                _memmap_cacheattr_wba_trapnull = 0x2222211f
                0x000000002222211f                _memmap_cacheattr_wbna_trapnull = 0x2222211f
                0x000000002222211f                _memmap_cacheattr_wt_trapnull = 0x2222211f
                0x000000002222222f                _memmap_cacheattr_bp_trapnull = 0x2222222f
                0x00000000fffff11f                _memmap_cacheattr_wb_strict = 0xfffff11f
                0x00000000fffff11f                _memmap_cacheattr_wt_strict = 0xfffff11f
                0x00000000fffff22f                _memmap_cacheattr_bp_strict = 0xfffff22f
                0x0000000022222112                _memmap_cacheattr_wb_allvalid = 0x22222112
                0x0000000022222112                _memmap_cacheattr_wt_allvalid = 0x22222112
                0x0000000022222222                _memmap_cacheattr_bp_allvalid = 0x22222222
                0x000000002222211f                PROVIDE (_memmap_cacheattr_reset, _memmap_cacheattr_wb_trapnull)

.dport0.rodata  0x000000003ff00000        0x0
                0x000000003ff00000                _dport0_rodata_start = ABSOLUTE (.)
 *(.dport0.rodata)
 *(.dport.rodata)
                0x000000003ff00000                _dport0_rodata_end = ABSOLUTE (.)

.dport0.literal
                0x000000003ff00000        0x0
                0x000000003ff00000                _dport0_literal_start = ABSOLUTE (.)
 *(.dport0.literal)
 *(.dport.literal)
                0x000000003ff00000                _dport0_literal_end = ABSOLUTE (.)

.dport0.data    0x000000003ff00000        0x0
                0x000000003ff00000                _dport0_data_start = ABSOLUTE (.)
 *(.dport0.data)
 *(.dport.data)
                0x000000003ff00000                _dport0_data_end = ABSOLUTE (.)

.data           0x000000003ffe8000      0xbac
                0x000000003ffe8000                _data_start = ABSOLUTE (.)
 *(.data)
 .data          0x000000003ffe8000        0x0 ./build/core.a(exception_vectors.o)
 .data          0x000000003ffe8000        0x0 ./build/sdklib/libmain.a(app_main.o)
 .data          0x000000003ffe8000        0x0 ./build/sdklib/libmain.a(ets_timer.o)
 .data          0x000000003ffe8000        0x4 ./build/sdklib/libmain.a(misc.o)
 .data          0x000000003ffe8004       0x18 ./build/sdklib/libmain.a(spi_flash.o)
                0x000000003ffe8004                sdk_flashchip
 .data          0x000000003ffe801c        0x0 ./build/sdklib/libmain.a(uart.o)
 .data          0x000000003ffe801c        0x1 ./build/sdklib/libmain.a(user_interface.o)
                0x000000003ffe801c                sdk_dhcpc_flag
 .data          0x000000003ffe801d        0x0 ./build/sdklib/libmain.a(os_cpu_a.o)
 .data          0x000000003ffe801d        0x0 ./build/sdklib/libmain.a(xtensa_context.o)
 .data          0x000000003ffe801d        0x0 ./build/sdklib/libmain.a(timers.o)
 .data          0x000000003ffe801d        0x0 ./build/sdklib/libnet80211.a(ieee80211.o)
 .data          0x000000003ffe801d        0x0 ./build/sdklib/libnet80211.a(ieee80211_crypto.o)
 .data          0x000000003ffe801d        0x0 ./build/sdklib/libnet80211.a(ieee80211_hostap.o)
 .data          0x000000003ffe801d        0x0 ./build/sdklib/libnet80211.a(ieee80211_ht.o)
 .data          0x000000003ffe801d        0x0 ./build/sdklib/libnet80211.a(ieee80211_input.o)
 .data          0x000000003ffe801d        0x0 ./build/sdklib/libnet80211.a(ieee80211_output.o)
 *fill*         0x000000003ffe801d        0x3 
 .data          0x000000003ffe8020      0x1a8 ./build/sdklib/libnet80211.a(ieee80211_phy.o)
 .data          0x000000003ffe81c8        0x0 ./build/sdklib/libnet80211.a(ieee80211_power.o)
 .data          0x000000003ffe81c8        0x6 ./build/sdklib/libnet80211.a(ieee80211_proto.o)
                0x000000003ffe81c8                sdk_ieee80211_addr_bcast
 .data          0x000000003ffe81ce        0x0 ./build/sdklib/libnet80211.a(ieee80211_scan.o)
 .data          0x000000003ffe81ce        0x0 ./build/sdklib/libnet80211.a(ieee80211_sta.o)
 .data          0x000000003ffe81ce        0x0 ./build/sdklib/libnet80211.a(wl_chm.o)
 .data          0x000000003ffe81ce        0x0 ./build/sdklib/libnet80211.a(wl_cnx.o)
 *fill*         0x000000003ffe81ce        0x2 
 .data          0x000000003ffe81d0       0x1c ./build/sdklib/libnet80211.a(ieee80211_action.o)
 .data          0x000000003ffe81ec        0x0 ./build/sdklib/libnet80211.a(ieee80211_ets.o)
 .data          0x000000003ffe81ec        0x0 ./build/sdklib/libphy.a(phy.o)
 .data          0x000000003ffe81ec        0x0 ./build/sdklib/libphy.a(phy_chip_v6_ana.o)
 *fill*         0x000000003ffe81ec        0x4 
 .data          0x000000003ffe81f0       0x53 ./build/sdklib/libphy.a(phy_chip_v6.o)
                0x000000003ffe81f2                sdk_tx_rf_ana_gain
                0x000000003ffe8214                sdk_tx_pwctrl_atten_init_en
                0x000000003ffe8220                sdk_rx_gain_swp
                0x000000003ffe8240                sdk_test_rffreq_txcap
 *fill*         0x000000003ffe8243        0xd 
 .data          0x000000003ffe8250       0x90 ./build/sdklib/libphy.a(phy_chip_v6_cal.o)
                0x000000003ffe8250                sdk_dpd_index
                0x000000003ffe82b0                sdk_dpd_db2linear
 .data          0x000000003ffe82e0        0x0 ./build/sdklib/libphy.a(phy_chip_v6_unused.o)
 .data          0x000000003ffe82e0        0x4 ./build/sdklib/libphy.a(phy_sleep.o)
                0x000000003ffe82e0                sdk_chip_version
 .data          0x000000003ffe82e4      0x11c ./build/sdklib/libphy.a(phy_chip_v5_romfunc.o)
                0x000000003ffe82e4                sdk_g_phyFuns
                0x000000003ffe82e8                sdk_g_phyFuns_instance
 .data          0x000000003ffe8400        0x0 ./build/sdklib/libphy.a(phy_chip_v5_ana_romfunc.o)
 .data          0x000000003ffe8400        0x7 ./build/sdklib/libphy.a(phy_chip_v5_cal_romfunc.o)
 .data          0x000000003ffe8407        0x0 ./build/sdklib/libpp.a(esf_buf.o)
 .data          0x000000003ffe8407        0x0 ./build/sdklib/libpp.a(if_hwctrl.o)
 .data          0x000000003ffe8407        0x0 ./build/sdklib/libpp.a(lmac.o)
 *fill*         0x000000003ffe8407        0x1 
 .data          0x000000003ffe8408        0x1 ./build/sdklib/libpp.a(pm.o)
 *fill*         0x000000003ffe8409        0x3 
 .data          0x000000003ffe840c       0x10 ./build/sdklib/libpp.a(pp.o)
                0x000000003ffe840c                sdk_NoiseTimerInterval
                0x000000003ffe8414                sdk_sleep_start_wait_time
 *fill*         0x000000003ffe841c        0x4 
 .data          0x000000003ffe8420       0x40 ./build/sdklib/libpp.a(rate_control.o)
 .data          0x000000003ffe8460      0x22c ./build/sdklib/libpp.a(trc.o)
 *fill*         0x000000003ffe868c        0x4 
 .data          0x000000003ffe8690       0x10 ./build/sdklib/libpp.a(wdev.o)
 .data          0x000000003ffe86a0        0x0 ./build/sdklib/libwpa.a(ap_config.o)
 .data          0x000000003ffe86a0        0x0 ./build/sdklib/libwpa.a(common.o)
 .data          0x000000003ffe86a0        0x0 ./build/sdklib/libwpa.a(os_xtensa.o)
 .data          0x000000003ffe86a0        0x0 ./build/sdklib/libwpa.a(sha1-pbkdf2.o)
 .data          0x000000003ffe86a0        0x0 ./build/sdklib/libwpa.a(wpa_auth.o)
 .data          0x000000003ffe86a0        0x0 ./build/sdklib/libwpa.a(wpa_auth_ie.o)
 .data          0x000000003ffe86a0        0x0 ./build/sdklib/libwpa.a(wpa.o)
 .data          0x000000003ffe86a0        0x0 ./build/sdklib/libwpa.a(wpa_common.o)
 .data          0x000000003ffe86a0        0x0 ./build/sdklib/libwpa.a(wpa_debug.o)
 .data          0x000000003ffe86a0        0x0 ./build/sdklib/libwpa.a(wpa_ie.o)
 .data          0x000000003ffe86a0        0x0 ./build/sdklib/libwpa.a(wpa_main.o)
 .data          0x000000003ffe86a0        0x0 ./build/sdklib/libwpa.a(wpas_glue.o)
 .data          0x000000003ffe86a0        0x0 ./build/sdklib/libwpa.a(aes-unwrap.o)
 .data          0x000000003ffe86a0        0x0 ./build/sdklib/libwpa.a(aes-wrap.o)
 .data          0x000000003ffe86a0        0x0 ./build/sdklib/libwpa.a(md5.o)
 .data          0x000000003ffe86a0        0x0 ./build/sdklib/libwpa.a(md5-internal.o)
 .data          0x000000003ffe86a0        0x0 ./build/sdklib/libwpa.a(rc4.o)
 .data          0x000000003ffe86a0        0x0 ./build/sdklib/libwpa.a(sha1.o)
 .data          0x000000003ffe86a0        0x0 ./build/sdklib/libwpa.a(sha1-internal.o)
 .data          0x000000003ffe86a0        0x0 ./build/sdklib/libwpa.a(aes-internal-dec.o)
 .data          0x000000003ffe86a0        0x0 ./build/sdklib/libwpa.a(aes-internal-enc.o)
 .data          0x000000003ffe86a0        0x0 ./build/sdklib/libwpa.a(aes-internal.o)
 .data          0x000000003ffe86a0        0x0 ./build/program.a(http_get_ssl.o)
 .data          0x000000003ffe86a0        0x0 ./build/freertos.a(queue.o)
 .data          0x000000003ffe86a0        0x4 ./build/freertos.a(tasks.o)
 .data          0x000000003ffe86a4        0x0 ./build/freertos.a(timers.o)
 .data          0x000000003ffe86a4        0x0 ./build/freertos.a(port.o)
 .data          0x000000003ffe86a4        0x0 ./build/freertos.a(list.o)
 .data          0x000000003ffe86a4        0x0 ./build/lwip.a(esp_interface.o)
 .data          0x000000003ffe86a4        0x0 ./build/lwip.a(netdb.o)
 .data          0x000000003ffe86a4        0x0 ./build/lwip.a(sockets.o)
 .data          0x000000003ffe86a4        0x0 ./build/lwip.a(tcpip.o)
 .data          0x000000003ffe86a4        0x4 ./build/lwip.a(dhcp.o)
 .data          0x000000003ffe86a8        0x0 ./build/lwip.a(dns.o)
 .data          0x000000003ffe86a8        0x0 ./build/lwip.a(init.o)
 .data          0x000000003ffe86a8        0x0 ./build/lwip.a(memp.o)
 .data          0x000000003ffe86a8        0x0 ./build/lwip.a(netif.o)
 .data          0x000000003ffe86a8        0x0 ./build/lwip.a(pbuf.o)
 .data          0x000000003ffe86a8        0x0 ./build/lwip.a(stats.o)
 .data          0x000000003ffe86a8        0x6 ./build/lwip.a(tcp.o)
 .data          0x000000003ffe86ae        0x0 ./build/lwip.a(tcp_out.o)
 .data          0x000000003ffe86ae        0x0 ./build/lwip.a(timers.o)
 .data          0x000000003ffe86ae        0x2 ./build/lwip.a(udp.o)
 .data          0x000000003ffe86b0        0x0 ./build/lwip.a(icmp.o)
 .data          0x000000003ffe86b0        0x0 ./build/lwip.a(inet_chksum.o)
 .data          0x000000003ffe86b0        0x0 ./build/lwip.a(ip_addr.o)
 .data          0x000000003ffe86b0        0x0 ./build/lwip.a(ip.o)
 .data          0x000000003ffe86b0        0x0 ./build/lwip.a(ip_frag.o)
 .data          0x000000003ffe86b0        0x0 ./build/lwip.a(etharp.o)
 .data          0x000000003ffe86b0        0x0 ./build/lwip.a(sys_arch.o)
 .data          0x000000003ffe86b0        0x0 ./build/lwip.a(api_lib.o)
 .data          0x000000003ffe86b0        0x0 ./build/lwip.a(api_msg.o)
 .data          0x000000003ffe86b0        0x0 ./build/lwip.a(netbuf.o)
 .data          0x000000003ffe86b0        0x0 ./build/lwip.a(raw.o)
 .data          0x000000003ffe86b0        0x0 ./build/lwip.a(tcp_in.o)
 .data          0x000000003ffe86b0        0x0 ./build/axtls.a(tls1.o)
 .data          0x000000003ffe86b0        0x0 ./build/axtls.a(tls1_clnt.o)
 .data          0x000000003ffe86b0        0x0 ./build/axtls.a(tls1_svr.o)
 .data          0x000000003ffe86b0        0x0 ./build/axtls.a(x509.o)
 .data          0x000000003ffe86b0        0x0 ./build/axtls.a(axtls_esp_stubs.o)
 .data          0x000000003ffe86b0        0x0 ./build/axtls.a(aes.o)
 .data          0x000000003ffe86b0        0x0 ./build/axtls.a(bigint.o)
 .data          0x000000003ffe86b0        0x0 ./build/axtls.a(crypto_misc.o)
 .data          0x000000003ffe86b0        0x0 ./build/axtls.a(hmac.o)
 .data          0x000000003ffe86b0        0x0 ./build/axtls.a(md5.o)
 .data          0x000000003ffe86b0        0x0 ./build/axtls.a(rc4.o)
 .data          0x000000003ffe86b0        0x0 ./build/axtls.a(rsa.o)
 .data          0x000000003ffe86b0        0x0 ./build/axtls.a(sha1.o)
 .data          0x000000003ffe86b0        0x0 ./build/axtls.a(sha256.o)
 .data          0x000000003ffe86b0        0x0 ./build/axtls.a(sha384.o)
 .data          0x000000003ffe86b0        0x0 ./build/axtls.a(sha512.o)
 .data          0x000000003ffe86b0        0x0 ./build/axtls.a(asn1.o)
 .data          0x000000003ffe86b0        0x0 ./build/axtls.a(loader.o)
 .data          0x000000003ffe86b0        0x0 ./build/core.a(sdk_compat.o)
 .data          0x000000003ffe86b0        0x0 /root/ESP8266/esp-open-sdk/xtensa-lx106-elf/xtensa-lx106-elf/sysroot/usr/lib/libhal.a(clock.o)
 .data          0x000000003ffe86b0        0x0 /root/ESP8266/esp-open-sdk/xtensa-lx106-elf/xtensa-lx106-elf/sysroot/usr/lib/libhal.a(int_asm--set_intset.o)
 .data          0x000000003ffe86b0        0x0 /root/ESP8266/esp-open-sdk/xtensa-lx106-elf/lib/gcc/xtensa-lx106-elf/4.8.2/libgcc.a(_divsi3.o)
 .data          0x000000003ffe86b0        0x0 /root/ESP8266/esp-open-sdk/xtensa-lx106-elf/lib/gcc/xtensa-lx106-elf/4.8.2/libgcc.a(_modsi3.o)
 .data          0x000000003ffe86b0        0x0 /root/ESP8266/esp-open-sdk/xtensa-lx106-elf/lib/gcc/xtensa-lx106-elf/4.8.2/libgcc.a(_udivsi3.o)
 .data          0x000000003ffe86b0        0x0 /root/ESP8266/esp-open-sdk/xtensa-lx106-elf/lib/gcc/xtensa-lx106-elf/4.8.2/libgcc.a(_umodsi3.o)
 .data          0x000000003ffe86b0        0x0 /root/ESP8266/esp-open-sdk/xtensa-lx106-elf/lib/gcc/xtensa-lx106-elf/4.8.2/libgcc.a(_ashrdi3.o)
 .data          0x000000003ffe86b0        0x0 /root/ESP8266/esp-open-sdk/xtensa-lx106-elf/lib/gcc/xtensa-lx106-elf/4.8.2/libgcc.a(_addsubsf3.o)
 .data          0x000000003ffe86b0        0x0 /root/ESP8266/esp-open-sdk/xtensa-lx106-elf/lib/gcc/xtensa-lx106-elf/4.8.2/libgcc.a(_mulsf3.o)
 .data          0x000000003ffe86b0        0x0 /root/ESP8266/esp-open-sdk/xtensa-lx106-elf/lib/gcc/xtensa-lx106-elf/4.8.2/libgcc.a(_divsf3.o)
 .data          0x000000003ffe86b0        0x0 /root/ESP8266/esp-open-sdk/xtensa-lx106-elf/lib/gcc/xtensa-lx106-elf/4.8.2/libgcc.a(_fixsfsi.o)
 .data          0x000000003ffe86b0        0x0 /root/ESP8266/esp-open-sdk/xtensa-lx106-elf/lib/gcc/xtensa-lx106-elf/4.8.2/libgcc.a(_fixunssfsi.o)
 .data          0x000000003ffe86b0        0x0 /root/ESP8266/esp-open-sdk/xtensa-lx106-elf/lib/gcc/xtensa-lx106-elf/4.8.2/libgcc.a(_floatsisf.o)
 .data          0x000000003ffe86b0        0x0 /root/ESP8266/esp-open-sdk/xtensa-lx106-elf/lib/gcc/xtensa-lx106-elf/4.8.2/libgcc.a(_addsubdf3.o)
 .data          0x000000003ffe86b0        0x0 /root/ESP8266/esp-open-sdk/xtensa-lx106-elf/lib/gcc/xtensa-lx106-elf/4.8.2/libgcc.a(_muldf3.o)
 .data          0x000000003ffe86b0        0x0 /root/ESP8266/esp-open-sdk/xtensa-lx106-elf/lib/gcc/xtensa-lx106-elf/4.8.2/libgcc.a(_divdf3.o)
 .data          0x000000003ffe86b0        0x0 /root/ESP8266/esp-open-sdk/xtensa-lx106-elf/lib/gcc/xtensa-lx106-elf/4.8.2/libgcc.a(_fixdfsi.o)
 .data          0x000000003ffe86b0        0x0 /root/ESP8266/esp-open-sdk/xtensa-lx106-elf/lib/gcc/xtensa-lx106-elf/4.8.2/libgcc.a(_floatsidf.o)
 .data          0x000000003ffe86b0        0x0 /root/ESP8266/esp-open-sdk/xtensa-lx106-elf/lib/gcc/xtensa-lx106-elf/4.8.2/libgcc.a(_truncdfsf2.o)
 .data          0x000000003ffe86b0        0x0 /root/ESP8266/esp-open-sdk/xtensa-lx106-elf/lib/gcc/xtensa-lx106-elf/4.8.2/libgcc.a(_extendsfdf2.o)
 .data          0x000000003ffe86b0        0x0 /root/ESP8266/esp-open-sdk/xtensa-lx106-elf/lib/gcc/xtensa-lx106-elf/4.8.2/libgcc.a(_muldi3.o)
 .data          0x000000003ffe86b0        0x0 /root/ESP8266/esp-open-sdk/xtensa-lx106-elf/lib/gcc/xtensa-lx106-elf/4.8.2/libgcc.a(_popcountsi2.o)
 .data          0x000000003ffe86b0        0x0 /root/ESP8266/esp-open-sdk/xtensa-lx106-elf/lib/gcc/xtensa-lx106-elf/4.8.2/libgcc.a(_divdi3.o)
 .data          0x000000003ffe86b0        0x0 /root/ESP8266/esp-open-sdk/xtensa-lx106-elf/lib/gcc/xtensa-lx106-elf/4.8.2/libgcc.a(_udivdi3.o)
 .data          0x000000003ffe86b0        0x0 /root/ESP8266/esp-open-sdk/xtensa-lx106-elf/lib/gcc/xtensa-lx106-elf/4.8.2/libgcc.a(_umoddi3.o)
 .data          0x000000003ffe86b0        0x0 /root/ESP8266/esp-open-sdk/xtensa-lx106-elf/lib/gcc/xtensa-lx106-elf/4.8.2/libgcc.a(_umulsidi3.o)
 .data          0x000000003ffe86b0        0x0 /root/ESP8266/esp-open-sdk/xtensa-lx106-elf/lib/gcc/xtensa-lx106-elf/4.8.2/libgcc.a(_popcount_tab.o)
 .data          0x000000003ffe86b0        0x0 ../../libc/xtensa-lx106-elf/lib/libc.a(lib_a-atoi.o)
 .data          0x000000003ffe86b0        0x0 ../../libc/xtensa-lx106-elf/lib/libc.a(lib_a-bzero.o)
 .data          0x000000003ffe86b0        0x0 ../../libc/xtensa-lx106-elf/lib/libc.a(lib_a-calloc.o)
 .data          0x000000003ffe86b0        0x0 ../../libc/xtensa-lx106-elf/lib/libc.a(lib_a-errno.o)
 .data          0x000000003ffe86b0      0x430 ../../libc/xtensa-lx106-elf/lib/libc.a(lib_a-impure.o)
                0x000000003ffe86b0                _impure_ptr
 .data          0x000000003ffe8ae0        0x0 ../../libc/xtensa-lx106-elf/lib/libc.a(lib_a-malloc.o)
 .data          0x000000003ffe8ae0        0x0 ../../libc/xtensa-lx106-elf/lib/libc.a(lib_a-memcmp.o)
 .data          0x000000003ffe8ae0        0x0 ../../libc/xtensa-lx106-elf/lib/libc.a(lib_a-memcpy.o)
 .data          0x000000003ffe8ae0        0x0 ../../libc/xtensa-lx106-elf/lib/libc.a(lib_a-memset.o)
 .data          0x000000003ffe8ae0        0x0 ../../libc/xtensa-lx106-elf/lib/libc.a(lib_a-mstats.o)
 .data          0x000000003ffe8ae0        0x0 ../../libc/xtensa-lx106-elf/lib/libc.a(lib_a-nano-callocr.o)
 .data          0x000000003ffe8ae0        0x0 ../../libc/xtensa-lx106-elf/lib/libc.a(lib_a-nano-freer.o)
 .data          0x000000003ffe8ae0        0x0 ../../libc/xtensa-lx106-elf/lib/libc.a(lib_a-nano-mallinfor.o)
 .data          0x000000003ffe8ae0        0x0 ../../libc/xtensa-lx106-elf/lib/libc.a(lib_a-nano-mallocr.o)
 .data          0x000000003ffe8ae0        0x0 ../../libc/xtensa-lx106-elf/lib/libc.a(lib_a-nano-malloptr.o)
 .data          0x000000003ffe8ae0        0x0 ../../libc/xtensa-lx106-elf/lib/libc.a(lib_a-nano-mallstatsr.o)
 .data          0x000000003ffe8ae0        0x0 ../../libc/xtensa-lx106-elf/lib/libc.a(lib_a-printf.o)
 .data          0x000000003ffe8ae0        0x0 ../../libc/xtensa-lx106-elf/lib/libc.a(lib_a-putchar.o)
 .data          0x000000003ffe8ae0        0x0 ../../libc/xtensa-lx106-elf/lib/libc.a(lib_a-putc.o)
 .data          0x000000003ffe8ae0        0x0 ../../libc/xtensa-lx106-elf/lib/libc.a(lib_a-puts.o)
 .data          0x000000003ffe8ae0        0x0 ../../libc/xtensa-lx106-elf/lib/libc.a(lib_a-rand.o)
 .data          0x000000003ffe8ae0        0x0 ../../libc/xtensa-lx106-elf/lib/libc.a(lib_a-realloc.o)
 .data          0x000000003ffe8ae0        0x0 ../../libc/xtensa-lx106-elf/lib/libc.a(lib_a-sprintf.o)
 .data          0x000000003ffe8ae0        0x0 ../../libc/xtensa-lx106-elf/lib/libc.a(lib_a-strcmp.o)
 .data          0x000000003ffe8ae0        0x0 ../../libc/xtensa-lx106-elf/lib/libc.a(lib_a-strcpy.o)
 .data          0x000000003ffe8ae0        0x0 ../../libc/xtensa-lx106-elf/lib/libc.a(lib_a-strlen.o)
 .data          0x000000003ffe8ae0        0x0 ../../libc/xtensa-lx106-elf/lib/libc.a(lib_a-strncmp.o)
 .data          0x000000003ffe8ae0        0x0 ../../libc/xtensa-lx106-elf/lib/libc.a(lib_a-strncpy.o)
 .data          0x000000003ffe8ae0        0x0 ../../libc/xtensa-lx106-elf/lib/libc.a(lib_a-strrchr.o)
 .data          0x000000003ffe8ae0        0x0 ../../libc/xtensa-lx106-elf/lib/libc.a(lib_a-strtol.o)
 .data          0x000000003ffe8ae0        0x0 ../../libc/xtensa-lx106-elf/lib/libc.a(lib_a-syssbrk.o)
 .data          0x000000003ffe8ae0        0x0 ../../libc/xtensa-lx106-elf/lib/libc.a(lib_a-wbuf.o)
 .data          0x000000003ffe8ae0        0x0 ../../libc/xtensa-lx106-elf/lib/libc.a(lib_a-wsetup.o)
 .data          0x000000003ffe8ae0        0x0 ../../libc/xtensa-lx106-elf/lib/libc.a(lock.o)
 .data          0x000000003ffe8ae0        0x4 ../../libc/xtensa-lx106-elf/lib/libc.a(lib_a-ctype_.o)
                0x000000003ffe8ae0                __ctype_ptr__
 .data          0x000000003ffe8ae4        0x0 ../../libc/xtensa-lx106-elf/lib/libc.a(lib_a-fflush.o)
 .data          0x000000003ffe8ae4        0x0 ../../libc/xtensa-lx106-elf/lib/libc.a(lib_a-findfp.o)
 .data          0x000000003ffe8ae4        0x0 ../../libc/xtensa-lx106-elf/lib/libc.a(lib_a-fprintf.o)
 .data          0x000000003ffe8ae4        0x0 ../../libc/xtensa-lx106-elf/lib/libc.a(lib_a-fvwrite.o)
 .data          0x000000003ffe8ae4        0x0 ../../libc/xtensa-lx106-elf/lib/libc.a(lib_a-fwalk.o)
 .data          0x000000003ffe8ae4        0x0 ../../libc/xtensa-lx106-elf/lib/libc.a(lib_a-makebuf.o)
 .data          0x000000003ffe8ae4        0x0 ../../libc/xtensa-lx106-elf/lib/libc.a(lib_a-memchr.o)
 .data          0x000000003ffe8ae4        0x0 ../../libc/xtensa-lx106-elf/lib/libc.a(lib_a-memmove.o)
 .data          0x000000003ffe8ae4        0x0 ../../libc/xtensa-lx106-elf/lib/libc.a(lib_a-nano-reallocr.o)
 .data          0x000000003ffe8ae4        0x0 ../../libc/xtensa-lx106-elf/lib/libc.a(lib_a-nano-svfprintf.o)
 .data          0x000000003ffe8ae4        0x0 ../../libc/xtensa-lx106-elf/lib/libc.a(lib_a-nano-vfprintf_i.o)
 .data          0x000000003ffe8ae4        0x0 ../../libc/xtensa-lx106-elf/lib/libc.a(lib_a-nano-vfprintf.o)
 .data          0x000000003ffe8ae4        0x0 ../../libc/xtensa-lx106-elf/lib/libc.a(lib_a-stdio.o)
 .data          0x000000003ffe8ae4        0x0 ../../libc/xtensa-lx106-elf/lib/libc.a(lib_a-strchr.o)
 .data          0x000000003ffe8ae4        0x0 ../../libc/xtensa-lx106-elf/lib/libc.a(isatty.o)
 .data          0x000000003ffe8ae4        0x0 ../../libc/xtensa-lx106-elf/lib/libc.a(lib_a-fclose.o)
 .data          0x000000003ffe8ae4        0x0 ../../libc/xtensa-lx106-elf/lib/libc.a(lib_a-fputwc.o)
 .data          0x000000003ffe8ae4       0x7c ../../libc/xtensa-lx106-elf/lib/libc.a(lib_a-locale.o)
                0x000000003ffe8b5c                __mb_cur_max
 .data          0x000000003ffe8b60        0x0 ../../libc/xtensa-lx106-elf/lib/libc.a(lib_a-nano-msizer.o)
 .data          0x000000003ffe8b60        0x0 ../../libc/xtensa-lx106-elf/lib/libc.a(lib_a-wcrtomb.o)
 .data          0x000000003ffe8b60        0x4 ../../libc/xtensa-lx106-elf/lib/libc.a(lib_a-wctomb_r.o)
                0x000000003ffe8b60                __wctomb
 .data          0x000000003ffe8b64       0x18 ./build/sdklib/libnet80211.a(ieee80211_crypto_ccmp.o)
                0x000000003ffe8b64                sdk_ccmp
 .data          0x000000003ffe8b7c       0x18 ./build/sdklib/libnet80211.a(ieee80211_crypto_tkip.o)
                0x000000003ffe8b7c                sdk_tkip
 .data          0x000000003ffe8b94       0x18 ./build/sdklib/libnet80211.a(ieee80211_crypto_wep.o)
                0x000000003ffe8b94                sdk_wep
 .data          0x000000003ffe8bac        0x0 ./build/core.a(newlib_syscalls.o)
 *(.data.*)
 *(.gnu.linkonce.d.*)
 *(.data1)
 *(.sdata)
 *(.sdata.*)
 *(.gnu.linkonce.s.*)
 *(.sdata2)
 *(.sdata2.*)
 *(.gnu.linkonce.s2.*)
 *(.jcr)
                0x000000003ffe8bac                _data_end = ABSOLUTE (.)

.rodata         0x000000003ffe8bb0     0x20d8
                0x000000003ffe8bb0                _rodata_start = ABSOLUTE (.)
 *(.rodata)
 .rodata        0x000000003ffe8bb0        0x8 ./build/sdklib/libnet80211.a(ieee80211.o)
                0x000000003ffe8bb0                sdk_ieee80211_opcap
 .rodata        0x000000003ffe8bb8        0x4 ./build/sdklib/libnet80211.a(ieee80211_hostap.o)
 .rodata        0x000000003ffe8bbc        0x4 ./build/sdklib/libnet80211.a(ieee80211_output.o)
 .rodata        0x000000003ffe8bc0       0x70 ./build/sdklib/libnet80211.a(ieee80211_proto.o)
 .rodata        0x000000003ffe8c30        0x8 ./build/sdklib/libnet80211.a(wl_cnx.o)
 .rodata        0x000000003ffe8c38        0x8 ./build/sdklib/libphy.a(phy_chip_v6_ana.o)
 .rodata        0x000000003ffe8c40        0x8 ./build/sdklib/libphy.a(phy_chip_v6.o)
 *fill*         0x000000003ffe8c48        0x8 
 .rodata        0x000000003ffe8c50       0x10 ./build/sdklib/libphy.a(phy_chip_v5_romfunc.o)
 .rodata        0x000000003ffe8c60        0xc ./build/sdklib/libphy.a(phy_chip_v5_ana_romfunc.o)
 *fill*         0x000000003ffe8c6c        0x4 
 .rodata        0x000000003ffe8c70        0x6 ./build/sdklib/libwpa.a(ap_config.o)
 *fill*         0x000000003ffe8c76        0x2 
 .rodata        0x000000003ffe8c78       0x14 ./build/sdklib/libwpa.a(wpa_auth.o)
 *fill*         0x000000003ffe8c8c        0x4 
 .rodata        0x000000003ffe8c90        0x8 ./build/sdklib/libwpa.a(wpa.o)
 *fill*         0x000000003ffe8c98        0x8 
 .rodata        0x000000003ffe8ca0        0xc ./build/sdklib/libwpa.a(wpa_common.o)
 .rodata        0x000000003ffe8cac        0x2 ./build/sdklib/libwpa.a(sha1-internal.o)
 *fill*         0x000000003ffe8cae        0x2 
 .rodata        0x000000003ffe8cb0        0xa ./build/sdklib/libwpa.a(aes-internal.o)
                0x000000003ffe8cb0                sdk_rcons
 *fill*         0x000000003ffe8cba        0x2 
 .rodata        0x000000003ffe8cbc       0x60 ./build/program.a(http_get_ssl.o)
 .rodata        0x000000003ffe8d1c       0x14 ./build/freertos.a(tasks.o)
 .rodata        0x000000003ffe8d30       0x84 ./build/lwip.a(sockets.o)
 .rodata        0x000000003ffe8db4       0x18 ./build/lwip.a(tcpip.o)
 .rodata        0x000000003ffe8dcc       0xf0 ./build/lwip.a(dhcp.o)
 .rodata        0x000000003ffe8ebc       0x1c ./build/lwip.a(memp.o)
                0x000000003ffe8ebc                memp_sizes
 .rodata        0x000000003ffe8ed8       0x14 ./build/lwip.a(pbuf.o)
 .rodata        0x000000003ffe8eec       0x74 ./build/lwip.a(tcp.o)
                0x000000003ffe8f0c                tcp_pcb_lists
                0x000000003ffe8f1c                tcp_persist_backoff
                0x000000003ffe8f24                tcp_backoff
                0x000000003ffe8f34                tcp_state_str
 .rodata        0x000000003ffe8f60        0x8 ./build/lwip.a(ip_addr.o)
                0x000000003ffe8f60                ip_addr_broadcast
                0x000000003ffe8f64                ip_addr_any
 .rodata        0x000000003ffe8f68        0xe ./build/lwip.a(etharp.o)
                0x000000003ffe8f68                ethzero
                0x000000003ffe8f70                ethbroadcast
 *fill*         0x000000003ffe8f76        0x2 
 .rodata        0x000000003ffe8f78       0x20 ./build/lwip.a(tcp_in.o)
 .rodata        0x000000003ffe8f98       0x80 ./build/axtls.a(tls1.o)
                0x000000003ffe900c                ssl_prot_prefs
 .rodata        0x000000003ffe9018       0x54 ./build/axtls.a(tls1_clnt.o)
 .rodata        0x000000003ffe906c       0x60 ./build/axtls.a(tls1_svr.o)
 .rodata        0x000000003ffe90cc       0x28 ./build/axtls.a(x509.o)
 .rodata        0x000000003ffe90f4      0x220 ./build/axtls.a(aes.o)
 .rodata        0x000000003ffe9314        0x4 ./build/axtls.a(crypto_misc.o)
                0x000000003ffe9314                unsupported_str
 .rodata        0x000000003ffe9318       0x40 ./build/axtls.a(md5.o)
 .rodata        0x000000003ffe9358       0x40 ./build/axtls.a(sha256.o)
 .rodata        0x000000003ffe9398      0x300 ./build/axtls.a(sha512.o)
 .rodata        0x000000003ffe9698       0x38 ./build/axtls.a(asn1.o)
 .rodata        0x000000003ffe96d0      0x100 /root/ESP8266/esp-open-sdk/xtensa-lx106-elf/lib/gcc/xtensa-lx106-elf/4.8.2/libgcc.a(_popcount_tab.o)
                0x000000003ffe96d0                __popcount_tab
 .rodata        0x000000003ffe97d0        0x4 ../../libc/xtensa-lx106-elf/lib/libc.a(lib_a-impure.o)
                0x000000003ffe97d0                _global_impure_ptr
 .rodata        0x000000003ffe97d4      0x101 ../../libc/xtensa-lx106-elf/lib/libc.a(lib_a-ctype_.o)
                0x000000003ffe97d4                _ctype_
 *(.rodata.*)
 *fill*         0x000000003ffe98d5        0x3 
 .rodata.str1.4
                0x000000003ffe98d8      0x165 ./build/sdklib/libmain.a(app_main.o)
                                        0x169 (size before relaxing)
 *fill*         0x000000003ffe9a3d        0x3 
 .rodata.str1.4
                0x000000003ffe9a40       0x7b ./build/sdklib/libmain.a(ets_timer.o)
 *fill*         0x000000003ffe9abb        0x1 
 .rodata.str1.4
                0x000000003ffe9abc      0x18f ./build/sdklib/libmain.a(user_interface.o)
                                        0x1a2 (size before relaxing)
 *fill*         0x000000003ffe9c4b        0x1 
 .rodata.str1.4
                0x000000003ffe9c4c       0x3f ./build/sdklib/libmain.a(timers.o)
 *fill*         0x000000003ffe9c8b        0x1 
 .rodata.str1.4
                0x000000003ffe9c8c       0x3f ./build/sdklib/libnet80211.a(ieee80211.o)
                                         0x4a (size before relaxing)
 *fill*         0x000000003ffe9ccb        0x1 
 .rodata.str1.4
                0x000000003ffe9ccc       0x19 ./build/sdklib/libnet80211.a(ieee80211_ht.o)
 *fill*         0x000000003ffe9ce5        0x3 
 .rodata.str1.4
                0x000000003ffe9ce8       0x27 ./build/sdklib/libnet80211.a(ieee80211_output.o)
                                         0x2f (size before relaxing)
 *fill*         0x000000003ffe9d0f        0x1 
 .rodata.str1.4
                0x000000003ffe9d10       0x24 ./build/sdklib/libnet80211.a(ieee80211_scan.o)
 .rodata.str1.4
                0x000000003ffe9d34       0x99 ./build/sdklib/libnet80211.a(wl_cnx.o)
 *fill*         0x000000003ffe9dcd        0x3 
 .rodata.str1.4
                0x000000003ffe9dd0       0x3d ./build/sdklib/libphy.a(phy_chip_v6_ana.o)
                                         0x45 (size before relaxing)
 *fill*         0x000000003ffe9e0d        0x3 
 .rodata.str1.4
                0x000000003ffe9e10       0xca ./build/sdklib/libphy.a(phy_chip_v6.o)
                                         0xce (size before relaxing)
 *fill*         0x000000003ffe9eda        0x2 
 .rodata.str1.4
                0x000000003ffe9edc      0x179 ./build/sdklib/libphy.a(phy_chip_v6_cal.o)
 *fill*         0x000000003ffea055        0x3 
 .rodata.str1.4
                0x000000003ffea058       0x1d ./build/sdklib/libphy.a(phy_chip_v6_unused.o)
 *fill*         0x000000003ffea075        0x3 
 .rodata.str1.4
                0x000000003ffea078       0x22 ./build/sdklib/libphy.a(phy_chip_v5_romfunc.o)
 *fill*         0x000000003ffea09a        0x2 
 .rodata.str1.4
                0x000000003ffea09c       0xbd ./build/sdklib/libphy.a(phy_chip_v5_cal_romfunc.o)
                                         0xe5 (size before relaxing)
 *fill*         0x000000003ffea159        0x3 
 .rodata.str1.4
                0x000000003ffea15c       0x44 ./build/sdklib/libpp.a(if_hwctrl.o)
 .rodata.str1.4
                0x000000003ffea1a0       0x2b ./build/sdklib/libpp.a(lmac.o)
                                         0x33 (size before relaxing)
 *fill*         0x000000003ffea1cb        0x1 
 .rodata.str1.4
                0x000000003ffea1cc      0x30a ./build/sdklib/libpp.a(pm.o)
                                        0x326 (size before relaxing)
 *fill*         0x000000003ffea4d6        0x2 
 .rodata.str1.4
                0x000000003ffea4d8       0x74 ./build/sdklib/libpp.a(pp.o)
                                         0x7c (size before relaxing)
 .rodata.str1.4
                0x000000003ffea54c       0x39 ./build/sdklib/libpp.a(trc.o)
 *fill*         0x000000003ffea585        0x3 
 .rodata.str1.4
                0x000000003ffea588        0x7 ./build/sdklib/libpp.a(wdev.o)
                                          0xf (size before relaxing)
 *fill*         0x000000003ffea58f        0x1 
 .rodata.str1.4
                0x000000003ffea590       0x3c ./build/sdklib/libwpa.a(wpa_auth.o)
                                         0x43 (size before relaxing)
 .rodata.str1.4
                0x0000000000000000       0x17 ./build/sdklib/libwpa.a(wpa.o)
 .rodata.str1.4
                0x000000003ffea5cc        0x9 ./build/sdklib/libwpa.a(wpa_common.o)
 *fill*         0x000000003ffea5d5        0x3 
 .rodata.str1.4
                0x000000003ffea5d8       0x36 ./build/sdklib/libwpa.a(wpa_main.o)
 *fill*         0x000000003ffea60e        0x2 
 .rodata.str1.4
                0x000000003ffea610        0x2 ./build/sdklib/libwpa.a(sha1-internal.o)
 *fill*         0x000000003ffea612        0x2 
 .rodata.str1.4
                0x000000003ffea614      0x36d ./build/program.a(http_get_ssl.o)
 *fill*         0x000000003ffea981        0x3 
 .rodata.str1.4
                0x000000003ffea984        0x5 ./build/freertos.a(tasks.o)
 *fill*         0x000000003ffea989        0x3 
 .rodata.str1.4
                0x000000003ffea98c        0x8 ./build/freertos.a(timers.o)
 .rodata.str1.4
                0x000000003ffea994        0xd ./build/lwip.a(tcpip.o)
 *fill*         0x000000003ffea9a1        0x3 
 .rodata.str1.4
                0x000000003ffea9a4        0xf ./build/lwip.a(dns.o)
 *fill*         0x000000003ffea9b3        0x1 
 .rodata.str1.4
                0x000000003ffea9b4       0x76 ./build/lwip.a(tcp.o)
 *fill*         0x000000003ffeaa2a        0x2 
 .rodata.str1.4
                0x000000003ffeaa2c       0x84 ./build/axtls.a(tls1.o)
 .rodata.str1.4
                0x000000003ffeaab0       0x15 ./build/axtls.a(axtls_esp_stubs.o)
 *fill*         0x000000003ffeaac5        0x3 
 .rodata.str1.4
                0x000000003ffeaac8       0x5a ./build/axtls.a(bigint.o)
 *fill*         0x000000003ffeab22        0x2 
 .rodata.str1.4
                0x000000003ffeab24       0x1e ./build/axtls.a(crypto_misc.o)
 *fill*         0x000000003ffeab42        0x2 
 .rodata.str1.4
                0x000000003ffeab44        0x4 ./build/axtls.a(loader.o)
                                          0x3 (size before relaxing)
 .rodata.str1.1
                0x000000003ffeab48        0x2 ../../libc/xtensa-lx106-elf/lib/libc.a(lib_a-impure.o)
 .rodata.str1.1
                0x000000003ffeab4a       0x21 ../../libc/xtensa-lx106-elf/lib/libc.a(lib_a-mstats.o)
 .rodata.str1.1
                0x000000003ffeab6b       0x4b ../../libc/xtensa-lx106-elf/lib/libc.a(lib_a-nano-mallstatsr.o)
 .rodata.str1.1
                0x0000000000000000       0x4b ../../libc/xtensa-lx106-elf/lib/libc.a(lib_a-puts.o)
                                          0x2 (size before relaxing)
 .rodata.str1.1
                0x000000003ffeabb6       0x11 ../../libc/xtensa-lx106-elf/lib/libc.a(lib_a-nano-svfprintf.o)
 .rodata.str1.1
                0x000000003ffeabc7       0x22 ../../libc/xtensa-lx106-elf/lib/libc.a(lib_a-nano-vfprintf_i.o)
 .rodata.str1.1
                0x0000000000000000       0x11 ../../libc/xtensa-lx106-elf/lib/libc.a(lib_a-nano-vfprintf.o)
 .rodata.str1.1
                0x000000003ffeabe9        0x8 ../../libc/xtensa-lx106-elf/lib/libc.a(lib_a-locale.o)
                                          0xb (size before relaxing)
 *(.gnu.linkonce.r.*)
 *(.rodata1)
                0x000000003ffeabf1                __XT_EXCEPTION_TABLE__ = ABSOLUTE (.)
 *(.xt_except_table)
 *(.gcc_except_table)
 *(.gnu.linkonce.e.*)
 *(.gnu.version_r)
 *(.eh_frame)
 *fill*         0x000000003ffeabf1        0x3 
 .eh_frame      0x000000003ffeabf4       0x38 /root/ESP8266/esp-open-sdk/xtensa-lx106-elf/lib/gcc/xtensa-lx106-elf/4.8.2/libgcc.a(_divdi3.o)
 .eh_frame      0x000000003ffeac2c       0x28 /root/ESP8266/esp-open-sdk/xtensa-lx106-elf/lib/gcc/xtensa-lx106-elf/4.8.2/libgcc.a(_udivdi3.o)
                                         0x38 (size before relaxing)
 .eh_frame      0x000000003ffeac54       0x2c /root/ESP8266/esp-open-sdk/xtensa-lx106-elf/lib/gcc/xtensa-lx106-elf/4.8.2/libgcc.a(_umoddi3.o)
                                         0x3c (size before relaxing)
                0x000000003ffeac80                . = ((. + 0x3) & 0xfffffffffffffffc)
                0x000000003ffeac80                __init_array_start = ABSOLUTE (.)
 *crtbegin.o(.ctors)
 *(EXCLUDE_FILE(*crtend.o) .ctors)
 *(SORT(.ctors.*))
 *(.ctors)
                0x000000003ffeac80                __init_array_end = ABSOLUTE (.)
 *crtbegin.o(.dtors)
 *(EXCLUDE_FILE(*crtend.o) .dtors)
 *(SORT(.dtors.*))
 *(.dtors)
                0x000000003ffeac80                __XT_EXCEPTION_DESCS__ = ABSOLUTE (.)
 *(.xt_except_desc)
 *(.gnu.linkonce.h.*)
                0x000000003ffeac80                __XT_EXCEPTION_DESCS_END__ = ABSOLUTE (.)
 *(.xt_except_desc_end)
 *(.dynamic)
 *(.gnu.version_d)
                0x000000003ffeac80                . = ALIGN (0x4)
                0x000000003ffeac80                _bss_table_start = ABSOLUTE (.)
                0x000000003ffeac80        0x4 LONG 0x3ffeac88 _bss_start
                0x000000003ffeac84        0x4 LONG 0x3fff32e0 _bss_end
                0x000000003ffeac88                _bss_table_end = ABSOLUTE (.)
                0x000000003ffeac88                _rodata_end = ABSOLUTE (.)

.bss            0x000000003ffeac88     0x8658
                0x000000003ffeac88                . = ALIGN (0x8)
                0x000000003ffeac88                _bss_start = ABSOLUTE (.)
 *(.dynsbss)
 *(.sbss)
 *(.sbss.*)
 *(.gnu.linkonce.sb.*)
 *(.scommon)
 *(.sbss2)
 *(.sbss2.*)
 *(.gnu.linkonce.sb2.*)
 *(.dynbss)
 *(.bss)
 .bss           0x000000003ffeac88      0x474 ./build/core.a(exception_vectors.o)
                0x000000003ffeb0f8                NMIHandlerAddress
 .bss           0x000000003ffeb0fc       0x30 ./build/sdklib/libmain.a(app_main.o)
                0x000000003ffeb0fc                sdk_user_init_flag
                0x000000003ffeb100                sdk_info
                0x000000003ffeb124                sdk_xUserTaskHandle
                0x000000003ffeb128                sdk_xWatchDogTaskHandle
 *fill*         0x000000003ffeb12c        0x4 
 .bss           0x000000003ffeb130       0x40 ./build/sdklib/libmain.a(ets_timer.o)
                0x000000003ffeb138                sdk_debug_timer
                0x000000003ffeb13c                sdk_debug_timerfn
 .bss           0x000000003ffeb170        0x4 ./build/sdklib/libmain.a(misc.o)
                0x000000003ffeb170                sdk__putc1
 .bss           0x000000003ffeb174        0x0 ./build/sdklib/libmain.a(spi_flash.o)
 .bss           0x000000003ffeb174        0x0 ./build/sdklib/libmain.a(uart.o)
 *fill*         0x000000003ffeb174        0xc 
 .bss           0x000000003ffeb180      0x131 ./build/sdklib/libmain.a(user_interface.o)
                0x000000003ffeb279                sdk_cpu_overclock
                0x000000003ffeb27c                sdk_rst_if
                0x000000003ffeb29c                sdk_promiscuous_cb
 .bss           0x000000003ffeb2b1        0x0 ./build/sdklib/libmain.a(os_cpu_a.o)
 .bss           0x000000003ffeb2b1        0x0 ./build/sdklib/libmain.a(xtensa_context.o)
 *fill*         0x000000003ffeb2b1        0x3 
 .bss           0x000000003ffeb2b4        0x5 ./build/sdklib/libmain.a(timers.o)
 *fill*         0x000000003ffeb2b9        0x3 
 .bss           0x000000003ffeb2bc      0x54c ./build/sdklib/libnet80211.a(ieee80211.o)
                0x000000003ffeb2bc                sdk_g_ic
                0x000000003ffeb804                sdk_xieee80211Queue
 .bss           0x000000003ffeb808        0x0 ./build/sdklib/libnet80211.a(ieee80211_crypto.o)
 .bss           0x000000003ffeb808       0x28 ./build/sdklib/libnet80211.a(ieee80211_hostap.o)
                0x000000003ffeb828                sdk_TmpSTAAPCloseAP
                0x000000003ffeb829                sdk_PendFreeBcnEb
 .bss           0x000000003ffeb830        0x0 ./build/sdklib/libnet80211.a(ieee80211_ht.o)
 .bss           0x000000003ffeb830        0x0 ./build/sdklib/libnet80211.a(ieee80211_input.o)
 .bss           0x000000003ffeb830        0x0 ./build/sdklib/libnet80211.a(ieee80211_output.o)
 .bss           0x000000003ffeb830        0x0 ./build/sdklib/libnet80211.a(ieee80211_phy.o)
 .bss           0x000000003ffeb830        0x0 ./build/sdklib/libnet80211.a(ieee80211_power.o)
 .bss           0x000000003ffeb830        0x0 ./build/sdklib/libnet80211.a(ieee80211_proto.o)
 .bss           0x000000003ffeb830       0xe4 ./build/sdklib/libnet80211.a(ieee80211_scan.o)
                0x000000003ffeb830                sdk_gScanStruct
                0x000000003ffeb8f4                sdk_auth_type
                0x000000003ffeb8f6                sdk_scannum
 .bss           0x000000003ffeb914        0x0 ./build/sdklib/libnet80211.a(ieee80211_sta.o)
 .bss           0x000000003ffeb914       0x44 ./build/sdklib/libnet80211.a(wl_chm.o)
 .bss           0x000000003ffeb958      0x780 ./build/sdklib/libnet80211.a(wl_cnx.o)
                0x000000003ffec0b8                sdk_sta_con_timer
                0x000000003ffec0d4                sdk_g_cnx_probe_rc_list_cb
 .bss           0x000000003ffec0d8        0x0 ./build/sdklib/libnet80211.a(ieee80211_action.o)
 .bss           0x000000003ffec0d8        0x0 ./build/sdklib/libnet80211.a(ieee80211_ets.o)
 .bss           0x000000003ffec0d8        0x4 ./build/sdklib/libphy.a(phy.o)
 .bss           0x000000003ffec0dc        0x0 ./build/sdklib/libphy.a(phy_chip_v6_ana.o)
 *fill*         0x000000003ffec0dc        0x4 
 .bss           0x000000003ffec0e0      0x38b ./build/sdklib/libphy.a(phy_chip_v6.o)
                0x000000003ffec0e0                sdk_rxiq_compute_num
                0x000000003ffec0e4                sdk_rxdc_init_flag
                0x000000003ffec0e8                sdk_check_result
                0x000000003ffec0ec                sdk_chip6_sleep_params
                0x000000003ffec2c4                sdk_chip6_phy_init_ctrl
                0x000000003ffec332                sdk_phy_freq_offset
                0x000000003ffec334                sdk_do_pwctrl_flag
                0x000000003ffec335                sdk_pwctrl_debug
                0x000000003ffec336                sdk_txbk_dpdby_flag
                0x000000003ffec338                sdk_sw_scan_mode
                0x000000003ffec34c                sdk_periodic_cal_dc_num
                0x000000003ffec350                sdk_periodic_cal_flag
                0x000000003ffec351                sdk_bbpll_cal_flag
                0x000000003ffec352                sdk_deep_sleep_en
                0x000000003ffec358                sdk_noise_array
                0x000000003ffec460                sdk_tx_pwctrl_atten_init
 *fill*         0x000000003ffec46b        0x1 
 .bss           0x000000003ffec46c        0x6 ./build/sdklib/libphy.a(phy_chip_v6_cal.o)
                0x000000003ffec46c                sdk_loop_pwctrl_pwdet_error_accum_high_power
                0x000000003ffec46e                sdk_tx_pwctrl_pk_num
                0x000000003ffec46f                sdk_loop_pwctrl_correct_atten_high_power
                0x000000003ffec470                sdk_tx_pwctrl_set_chan_flag
                0x000000003ffec471                sdk_rxiq_cover_fail_num
 .bss           0x000000003ffec472        0x0 ./build/sdklib/libphy.a(phy_chip_v6_unused.o)
 *fill*         0x000000003ffec472        0x2 
 .bss           0x000000003ffec474        0x4 ./build/sdklib/libphy.a(phy_sleep.o)
                0x000000003ffec474                sdk_periodic_cal_sat
                0x000000003ffec475                sdk_software_slp_reject
                0x000000003ffec476                sdk_SDIO_slp_reject
                0x000000003ffec477                sdk_hardware_reject
 .bss           0x000000003ffec478        0x0 ./build/sdklib/libphy.a(phy_chip_v5_romfunc.o)
 .bss           0x000000003ffec478        0x0 ./build/sdklib/libphy.a(phy_chip_v5_ana_romfunc.o)
 .bss           0x000000003ffec478        0x0 ./build/sdklib/libphy.a(phy_chip_v5_cal_romfunc.o)
 *fill*         0x000000003ffec478        0x8 
 .bss           0x000000003ffec480     0x11e8 ./build/sdklib/libpp.a(esf_buf.o)
 *fill*         0x000000003ffed668        0x8 
 .bss           0x000000003ffed670       0x30 ./build/sdklib/libpp.a(if_hwctrl.o)
                0x000000003ffed670                sdk_interface_mask
                0x000000003ffed680                sdk_if_ctrl
 .bss           0x000000003ffed6a0      0x150 ./build/sdklib/libpp.a(lmac.o)
                0x000000003ffed6a4                sdk_lmacConfMib
 .bss           0x000000003ffed7f0      0x149 ./build/sdklib/libpp.a(pm.o)
 *fill*         0x000000003ffed939        0x7 
 .bss           0x000000003ffed940      0x352 ./build/sdklib/libpp.a(pp.o)
                0x000000003ffed968                sdk_pend_flag_noise_check
                0x000000003ffed970                sdk_pend_flag_periodic_cal
                0x000000003ffed994                sdk_dbg_stop_sw_wdt
                0x000000003ffed995                sdk_dbg_stop_hw_wdt
 *fill*         0x000000003ffedc92        0xe 
 .bss           0x000000003ffedca0      0x100 ./build/sdklib/libpp.a(rate_control.o)
 .bss           0x000000003ffedda0      0x268 ./build/sdklib/libpp.a(trc.o)
 *fill*         0x000000003ffee008        0x8 
 .bss           0x000000003ffee010     0x4721 ./build/sdklib/libpp.a(wdev.o)
                0x000000003ffee010                sdk_wDevCtrl
                0x000000003ffee1b4                sdk_NMIIrqIsOn
                0x000000003ffee1b8                sdk_WdevTimOffSet
 .bss           0x000000003fff2731        0x0 ./build/sdklib/libwpa.a(ap_config.o)
 .bss           0x000000003fff2731        0x0 ./build/sdklib/libwpa.a(common.o)
 .bss           0x000000003fff2731        0x0 ./build/sdklib/libwpa.a(os_xtensa.o)
 .bss           0x000000003fff2731        0x0 ./build/sdklib/libwpa.a(sha1-pbkdf2.o)
 .bss           0x000000003fff2731        0x0 ./build/sdklib/libwpa.a(wpa_auth.o)
 .bss           0x000000003fff2731        0x0 ./build/sdklib/libwpa.a(wpa_auth_ie.o)
 *fill*         0x000000003fff2731        0xf 
 .bss           0x000000003fff2740      0x27a ./build/sdklib/libwpa.a(wpa.o)
 .bss           0x000000003fff29ba        0x0 ./build/sdklib/libwpa.a(wpa_common.o)
 .bss           0x000000003fff29ba        0x0 ./build/sdklib/libwpa.a(wpa_debug.o)
 .bss           0x000000003fff29ba        0x0 ./build/sdklib/libwpa.a(wpa_ie.o)
 .bss           0x000000003fff29ba        0x0 ./build/sdklib/libwpa.a(wpa_main.o)
 .bss           0x000000003fff29ba        0x0 ./build/sdklib/libwpa.a(wpas_glue.o)
 .bss           0x000000003fff29ba        0x0 ./build/sdklib/libwpa.a(aes-unwrap.o)
 .bss           0x000000003fff29ba        0x0 ./build/sdklib/libwpa.a(aes-wrap.o)
 .bss           0x000000003fff29ba        0x0 ./build/sdklib/libwpa.a(md5.o)
 .bss           0x000000003fff29ba        0x0 ./build/sdklib/libwpa.a(md5-internal.o)
 .bss           0x000000003fff29ba        0x0 ./build/sdklib/libwpa.a(rc4.o)
 .bss           0x000000003fff29ba        0x0 ./build/sdklib/libwpa.a(sha1.o)
 .bss           0x000000003fff29ba        0x0 ./build/sdklib/libwpa.a(sha1-internal.o)
 *fill*         0x000000003fff29ba        0x6 
 .bss           0x000000003fff29c0       0xb0 ./build/sdklib/libwpa.a(aes-internal-dec.o)
 .bss           0x000000003fff2a70        0x0 ./build/sdklib/libwpa.a(aes-internal-enc.o)
 .bss           0x000000003fff2a70        0x0 ./build/sdklib/libwpa.a(aes-internal.o)
 .bss           0x000000003fff2a70        0x0 ./build/program.a(http_get_ssl.o)
 .bss           0x000000003fff2a70        0x0 ./build/freertos.a(queue.o)
 .bss           0x000000003fff2a70      0x1c8 ./build/freertos.a(tasks.o)
                0x000000003fff2a70                pxCurrentTCB
 .bss           0x000000003fff2c38       0x3c ./build/freertos.a(timers.o)
 .bss           0x000000003fff2c74       0x14 ./build/freertos.a(port.o)
 .bss           0x000000003fff2c88        0x0 ./build/freertos.a(list.o)
 .bss           0x000000003fff2c88        0x0 ./build/lwip.a(esp_interface.o)
 .bss           0x000000003fff2c88       0x24 ./build/lwip.a(netdb.o)
 .bss           0x000000003fff2cac       0x68 ./build/lwip.a(sockets.o)
 .bss           0x000000003fff2d14        0xc ./build/lwip.a(tcpip.o)
 .bss           0x000000003fff2d20        0x0 ./build/lwip.a(dhcp.o)
 .bss           0x000000003fff2d20      0x2b0 ./build/lwip.a(dns.o)
 .bss           0x000000003fff2fd0        0x0 ./build/lwip.a(init.o)
 .bss           0x000000003fff2fd0        0x0 ./build/lwip.a(memp.o)
 .bss           0x000000003fff2fd0        0x1 ./build/lwip.a(netif.o)
 .bss           0x000000003fff2fd1        0x0 ./build/lwip.a(pbuf.o)
 .bss           0x000000003fff2fd1        0x0 ./build/lwip.a(stats.o)
 .bss           0x000000003fff2fd1        0x2 ./build/lwip.a(tcp.o)
 .bss           0x000000003fff2fd3        0x0 ./build/lwip.a(tcp_out.o)
 *fill*         0x000000003fff2fd3        0x1 
 .bss           0x000000003fff2fd4        0x8 ./build/lwip.a(timers.o)
 .bss           0x000000003fff2fdc        0x0 ./build/lwip.a(udp.o)
 .bss           0x000000003fff2fdc        0x0 ./build/lwip.a(icmp.o)
 .bss           0x000000003fff2fdc        0x0 ./build/lwip.a(inet_chksum.o)
 .bss           0x000000003fff2fdc       0x10 ./build/lwip.a(ip_addr.o)
 .bss           0x000000003fff2fec        0x2 ./build/lwip.a(ip.o)
 .bss           0x000000003fff2fee        0x0 ./build/lwip.a(ip_frag.o)
 *fill*         0x000000003fff2fee        0x2 
 .bss           0x000000003fff2ff0       0xcc ./build/lwip.a(etharp.o)
 .bss           0x000000003fff30bc        0x4 ./build/lwip.a(sys_arch.o)
                0x000000003fff30bc                xInsideISR
 .bss           0x000000003fff30c0        0x0 ./build/lwip.a(api_lib.o)
 .bss           0x000000003fff30c0        0x0 ./build/lwip.a(api_msg.o)
 .bss           0x000000003fff30c0        0x0 ./build/lwip.a(netbuf.o)
 .bss           0x000000003fff30c0        0x4 ./build/lwip.a(raw.o)
 .bss           0x000000003fff30c4       0x2c ./build/lwip.a(tcp_in.o)
 .bss           0x000000003fff30f0        0x0 ./build/axtls.a(tls1.o)
 .bss           0x000000003fff30f0        0x0 ./build/axtls.a(tls1_clnt.o)
 .bss           0x000000003fff30f0        0x0 ./build/axtls.a(tls1_svr.o)
 .bss           0x000000003fff30f0        0x0 ./build/axtls.a(x509.o)
 .bss           0x000000003fff30f0        0x0 ./build/axtls.a(axtls_esp_stubs.o)
 .bss           0x000000003fff30f0        0x0 ./build/axtls.a(aes.o)
 .bss           0x000000003fff30f0        0x0 ./build/axtls.a(bigint.o)
 .bss           0x000000003fff30f0       0x20 ./build/axtls.a(crypto_misc.o)
 .bss           0x000000003fff3110        0x0 ./build/axtls.a(hmac.o)
 .bss           0x000000003fff3110        0x0 ./build/axtls.a(md5.o)
 .bss           0x000000003fff3110        0x0 ./build/axtls.a(rc4.o)
 .bss           0x000000003fff3110        0x0 ./build/axtls.a(rsa.o)
 .bss           0x000000003fff3110        0x0 ./build/axtls.a(sha1.o)
 .bss           0x000000003fff3110        0x0 ./build/axtls.a(sha256.o)
 .bss           0x000000003fff3110        0x0 ./build/axtls.a(sha384.o)
 .bss           0x000000003fff3110        0x0 ./build/axtls.a(sha512.o)
 .bss           0x000000003fff3110        0x0 ./build/axtls.a(asn1.o)
 .bss           0x000000003fff3110        0x0 ./build/axtls.a(loader.o)
 .bss           0x000000003fff3110        0x0 ./build/core.a(sdk_compat.o)
 .bss           0x000000003fff3110        0x0 /root/ESP8266/esp-open-sdk/xtensa-lx106-elf/xtensa-lx106-elf/sysroot/usr/lib/libhal.a(clock.o)
 .bss           0x000000003fff3110        0x0 /root/ESP8266/esp-open-sdk/xtensa-lx106-elf/xtensa-lx106-elf/sysroot/usr/lib/libhal.a(int_asm--set_intset.o)
 .bss           0x000000003fff3110        0x0 /root/ESP8266/esp-open-sdk/xtensa-lx106-elf/lib/gcc/xtensa-lx106-elf/4.8.2/libgcc.a(_divsi3.o)
 .bss           0x000000003fff3110        0x0 /root/ESP8266/esp-open-sdk/xtensa-lx106-elf/lib/gcc/xtensa-lx106-elf/4.8.2/libgcc.a(_modsi3.o)
 .bss           0x000000003fff3110        0x0 /root/ESP8266/esp-open-sdk/xtensa-lx106-elf/lib/gcc/xtensa-lx106-elf/4.8.2/libgcc.a(_udivsi3.o)
 .bss           0x000000003fff3110        0x0 /root/ESP8266/esp-open-sdk/xtensa-lx106-elf/lib/gcc/xtensa-lx106-elf/4.8.2/libgcc.a(_umodsi3.o)
 .bss           0x000000003fff3110        0x0 /root/ESP8266/esp-open-sdk/xtensa-lx106-elf/lib/gcc/xtensa-lx106-elf/4.8.2/libgcc.a(_ashrdi3.o)
 .bss           0x000000003fff3110        0x0 /root/ESP8266/esp-open-sdk/xtensa-lx106-elf/lib/gcc/xtensa-lx106-elf/4.8.2/libgcc.a(_addsubsf3.o)
 .bss           0x000000003fff3110        0x0 /root/ESP8266/esp-open-sdk/xtensa-lx106-elf/lib/gcc/xtensa-lx106-elf/4.8.2/libgcc.a(_mulsf3.o)
 .bss           0x000000003fff3110        0x0 /root/ESP8266/esp-open-sdk/xtensa-lx106-elf/lib/gcc/xtensa-lx106-elf/4.8.2/libgcc.a(_divsf3.o)
 .bss           0x000000003fff3110        0x0 /root/ESP8266/esp-open-sdk/xtensa-lx106-elf/lib/gcc/xtensa-lx106-elf/4.8.2/libgcc.a(_fixsfsi.o)
 .bss           0x000000003fff3110        0x0 /root/ESP8266/esp-open-sdk/xtensa-lx106-elf/lib/gcc/xtensa-lx106-elf/4.8.2/libgcc.a(_fixunssfsi.o)
 .bss           0x000000003fff3110        0x0 /root/ESP8266/esp-open-sdk/xtensa-lx106-elf/lib/gcc/xtensa-lx106-elf/4.8.2/libgcc.a(_floatsisf.o)
 .bss           0x000000003fff3110        0x0 /root/ESP8266/esp-open-sdk/xtensa-lx106-elf/lib/gcc/xtensa-lx106-elf/4.8.2/libgcc.a(_addsubdf3.o)
 .bss           0x000000003fff3110        0x0 /root/ESP8266/esp-open-sdk/xtensa-lx106-elf/lib/gcc/xtensa-lx106-elf/4.8.2/libgcc.a(_muldf3.o)
 .bss           0x000000003fff3110        0x0 /root/ESP8266/esp-open-sdk/xtensa-lx106-elf/lib/gcc/xtensa-lx106-elf/4.8.2/libgcc.a(_divdf3.o)
 .bss           0x000000003fff3110        0x0 /root/ESP8266/esp-open-sdk/xtensa-lx106-elf/lib/gcc/xtensa-lx106-elf/4.8.2/libgcc.a(_fixdfsi.o)
 .bss           0x000000003fff3110        0x0 /root/ESP8266/esp-open-sdk/xtensa-lx106-elf/lib/gcc/xtensa-lx106-elf/4.8.2/libgcc.a(_floatsidf.o)
 .bss           0x000000003fff3110        0x0 /root/ESP8266/esp-open-sdk/xtensa-lx106-elf/lib/gcc/xtensa-lx106-elf/4.8.2/libgcc.a(_truncdfsf2.o)
 .bss           0x000000003fff3110        0x0 /root/ESP8266/esp-open-sdk/xtensa-lx106-elf/lib/gcc/xtensa-lx106-elf/4.8.2/libgcc.a(_extendsfdf2.o)
 .bss           0x000000003fff3110        0x0 /root/ESP8266/esp-open-sdk/xtensa-lx106-elf/lib/gcc/xtensa-lx106-elf/4.8.2/libgcc.a(_muldi3.o)
 .bss           0x000000003fff3110        0x0 /root/ESP8266/esp-open-sdk/xtensa-lx106-elf/lib/gcc/xtensa-lx106-elf/4.8.2/libgcc.a(_popcountsi2.o)
 .bss           0x000000003fff3110        0x0 /root/ESP8266/esp-open-sdk/xtensa-lx106-elf/lib/gcc/xtensa-lx106-elf/4.8.2/libgcc.a(_divdi3.o)
 .bss           0x000000003fff3110        0x0 /root/ESP8266/esp-open-sdk/xtensa-lx106-elf/lib/gcc/xtensa-lx106-elf/4.8.2/libgcc.a(_udivdi3.o)
 .bss           0x000000003fff3110        0x0 /root/ESP8266/esp-open-sdk/xtensa-lx106-elf/lib/gcc/xtensa-lx106-elf/4.8.2/libgcc.a(_umoddi3.o)
 .bss           0x000000003fff3110        0x0 /root/ESP8266/esp-open-sdk/xtensa-lx106-elf/lib/gcc/xtensa-lx106-elf/4.8.2/libgcc.a(_umulsidi3.o)
 .bss           0x000000003fff3110        0x0 /root/ESP8266/esp-open-sdk/xtensa-lx106-elf/lib/gcc/xtensa-lx106-elf/4.8.2/libgcc.a(_popcount_tab.o)
 .bss           0x000000003fff3110        0x0 ../../libc/xtensa-lx106-elf/lib/libc.a(lib_a-atoi.o)
 .bss           0x000000003fff3110        0x0 ../../libc/xtensa-lx106-elf/lib/libc.a(lib_a-bzero.o)
 .bss           0x000000003fff3110        0x0 ../../libc/xtensa-lx106-elf/lib/libc.a(lib_a-calloc.o)
 .bss           0x000000003fff3110        0x0 ../../libc/xtensa-lx106-elf/lib/libc.a(lib_a-errno.o)
 .bss           0x000000003fff3110        0x0 ../../libc/xtensa-lx106-elf/lib/libc.a(lib_a-impure.o)
 .bss           0x000000003fff3110        0x0 ../../libc/xtensa-lx106-elf/lib/libc.a(lib_a-malloc.o)
 .bss           0x000000003fff3110        0x0 ../../libc/xtensa-lx106-elf/lib/libc.a(lib_a-memcmp.o)
 .bss           0x000000003fff3110        0x0 ../../libc/xtensa-lx106-elf/lib/libc.a(lib_a-memcpy.o)
 .bss           0x000000003fff3110        0x0 ../../libc/xtensa-lx106-elf/lib/libc.a(lib_a-memset.o)
 .bss           0x000000003fff3110        0x0 ../../libc/xtensa-lx106-elf/lib/libc.a(lib_a-mstats.o)
 .bss           0x000000003fff3110        0x0 ../../libc/xtensa-lx106-elf/lib/libc.a(lib_a-nano-callocr.o)
 .bss           0x000000003fff3110        0x0 ../../libc/xtensa-lx106-elf/lib/libc.a(lib_a-nano-freer.o)
 .bss           0x000000003fff3110       0x28 ../../libc/xtensa-lx106-elf/lib/libc.a(lib_a-nano-mallinfor.o)
                0x000000003fff3110                __malloc_current_mallinfo
 .bss           0x000000003fff3138        0x8 ../../libc/xtensa-lx106-elf/lib/libc.a(lib_a-nano-mallocr.o)
                0x000000003fff3138                __malloc_sbrk_start
                0x000000003fff313c                __malloc_free_list
 .bss           0x000000003fff3140        0x0 ../../libc/xtensa-lx106-elf/lib/libc.a(lib_a-nano-malloptr.o)
 .bss           0x000000003fff3140        0x0 ../../libc/xtensa-lx106-elf/lib/libc.a(lib_a-nano-mallstatsr.o)
 .bss           0x000000003fff3140        0x0 ../../libc/xtensa-lx106-elf/lib/libc.a(lib_a-printf.o)
 .bss           0x000000003fff3140        0x0 ../../libc/xtensa-lx106-elf/lib/libc.a(lib_a-putchar.o)
 .bss           0x000000003fff3140        0x0 ../../libc/xtensa-lx106-elf/lib/libc.a(lib_a-putc.o)
 .bss           0x000000003fff3140        0x0 ../../libc/xtensa-lx106-elf/lib/libc.a(lib_a-puts.o)
 .bss           0x000000003fff3140        0x0 ../../libc/xtensa-lx106-elf/lib/libc.a(lib_a-rand.o)
 .bss           0x000000003fff3140        0x0 ../../libc/xtensa-lx106-elf/lib/libc.a(lib_a-realloc.o)
 .bss           0x000000003fff3140        0x0 ../../libc/xtensa-lx106-elf/lib/libc.a(lib_a-sprintf.o)
 .bss           0x000000003fff3140        0x0 ../../libc/xtensa-lx106-elf/lib/libc.a(lib_a-strcmp.o)
 .bss           0x000000003fff3140        0x0 ../../libc/xtensa-lx106-elf/lib/libc.a(lib_a-strcpy.o)
 .bss           0x000000003fff3140        0x0 ../../libc/xtensa-lx106-elf/lib/libc.a(lib_a-strlen.o)
 .bss           0x000000003fff3140        0x0 ../../libc/xtensa-lx106-elf/lib/libc.a(lib_a-strncmp.o)
 .bss           0x000000003fff3140        0x0 ../../libc/xtensa-lx106-elf/lib/libc.a(lib_a-strncpy.o)
 .bss           0x000000003fff3140        0x0 ../../libc/xtensa-lx106-elf/lib/libc.a(lib_a-strrchr.o)
 .bss           0x000000003fff3140        0x0 ../../libc/xtensa-lx106-elf/lib/libc.a(lib_a-strtol.o)
 .bss           0x000000003fff3140        0x0 ../../libc/xtensa-lx106-elf/lib/libc.a(lib_a-syssbrk.o)
 .bss           0x000000003fff3140        0x0 ../../libc/xtensa-lx106-elf/lib/libc.a(lib_a-wbuf.o)
 .bss           0x000000003fff3140        0x0 ../../libc/xtensa-lx106-elf/lib/libc.a(lib_a-wsetup.o)
 .bss           0x000000003fff3140        0x0 ../../libc/xtensa-lx106-elf/lib/libc.a(lock.o)
 .bss           0x000000003fff3140        0x0 ../../libc/xtensa-lx106-elf/lib/libc.a(lib_a-ctype_.o)
 .bss           0x000000003fff3140        0x0 ../../libc/xtensa-lx106-elf/lib/libc.a(lib_a-fflush.o)
 .bss           0x000000003fff3140        0x8 ../../libc/xtensa-lx106-elf/lib/libc.a(lib_a-findfp.o)
 .bss           0x000000003fff3148        0x0 ../../libc/xtensa-lx106-elf/lib/libc.a(lib_a-fprintf.o)
 .bss           0x000000003fff3148        0x0 ../../libc/xtensa-lx106-elf/lib/libc.a(lib_a-fvwrite.o)
 .bss           0x000000003fff3148        0x0 ../../libc/xtensa-lx106-elf/lib/libc.a(lib_a-fwalk.o)
 .bss           0x000000003fff3148        0x0 ../../libc/xtensa-lx106-elf/lib/libc.a(lib_a-makebuf.o)
 .bss           0x000000003fff3148        0x0 ../../libc/xtensa-lx106-elf/lib/libc.a(lib_a-memchr.o)
 .bss           0x000000003fff3148        0x0 ../../libc/xtensa-lx106-elf/lib/libc.a(lib_a-memmove.o)
 .bss           0x000000003fff3148        0x0 ../../libc/xtensa-lx106-elf/lib/libc.a(lib_a-nano-reallocr.o)
 .bss           0x000000003fff3148        0x0 ../../libc/xtensa-lx106-elf/lib/libc.a(lib_a-nano-svfprintf.o)
 .bss           0x000000003fff3148        0x0 ../../libc/xtensa-lx106-elf/lib/libc.a(lib_a-nano-vfprintf_i.o)
 .bss           0x000000003fff3148        0x0 ../../libc/xtensa-lx106-elf/lib/libc.a(lib_a-nano-vfprintf.o)
 .bss           0x000000003fff3148        0x0 ../../libc/xtensa-lx106-elf/lib/libc.a(lib_a-stdio.o)
 .bss           0x000000003fff3148        0x0 ../../libc/xtensa-lx106-elf/lib/libc.a(lib_a-strchr.o)
 .bss           0x000000003fff3148        0x0 ../../libc/xtensa-lx106-elf/lib/libc.a(isatty.o)
 .bss           0x000000003fff3148        0x0 ../../libc/xtensa-lx106-elf/lib/libc.a(lib_a-fclose.o)
 .bss           0x000000003fff3148        0x0 ../../libc/xtensa-lx106-elf/lib/libc.a(lib_a-fputwc.o)
 .bss           0x000000003fff3148        0xc ../../libc/xtensa-lx106-elf/lib/libc.a(lib_a-locale.o)
                0x000000003fff3148                _PathLocale
                0x000000003fff314c                __mlocale_changed
                0x000000003fff3150                __nlocale_changed
 .bss           0x000000003fff3154        0x0 ../../libc/xtensa-lx106-elf/lib/libc.a(lib_a-nano-msizer.o)
 .bss           0x000000003fff3154        0x0 ../../libc/xtensa-lx106-elf/lib/libc.a(lib_a-wcrtomb.o)
 .bss           0x000000003fff3154        0x0 ../../libc/xtensa-lx106-elf/lib/libc.a(lib_a-wctomb_r.o)
 .bss           0x000000003fff3154        0x0 ./build/sdklib/libnet80211.a(ieee80211_crypto_ccmp.o)
 *fill*         0x000000003fff3154        0x4 
 .bss           0x000000003fff3158        0x8 ./build/sdklib/libnet80211.a(ieee80211_crypto_tkip.o)
 .bss           0x000000003fff3160        0x0 ./build/sdklib/libnet80211.a(ieee80211_crypto_wep.o)
 .bss           0x000000003fff3160        0x4 ./build/core.a(newlib_syscalls.o)
 *(.bss.*)
 *(.gnu.linkonce.b.*)
 *(COMMON)
 COMMON         0x000000003fff3164       0x48 ./build/freertos.a(port.o)
                0x000000003fff3164                level1_int_disabled
                0x000000003fff3168                isr
                0x000000003fff31a8                cpu_sr
 COMMON         0x000000003fff31ac        0x4 ./build/lwip.a(netdb.o)
                0x000000003fff31ac                h_errno
 COMMON         0x000000003fff31b0       0x34 ./build/lwip.a(dhcp.o)
                0x000000003fff31b0                dhcp_rx_options_given
                0x000000003fff31bc                dhcp_rx_options_val
 COMMON         0x000000003fff31e4        0x8 ./build/lwip.a(netif.o)
                0x000000003fff31e4                netif_list
                0x000000003fff31e8                netif_default
 COMMON         0x000000003fff31ec       0xba ./build/lwip.a(stats.o)
                0x000000003fff31ec                lwip_stats
 *fill*         0x000000003fff32a6        0x2 
 COMMON         0x000000003fff32a8       0x1c ./build/lwip.a(tcp.o)
                0x000000003fff32a8                tcp_active_pcbs_changed
                0x000000003fff32ac                tcp_active_pcbs
                0x000000003fff32b0                tcp_ticks
                0x000000003fff32b4                tcp_listen_pcbs
                0x000000003fff32b8                tcp_tmp_pcb
                0x000000003fff32bc                tcp_bound_pcbs
                0x000000003fff32c0                tcp_tw_pcbs
 COMMON         0x000000003fff32c4        0x4 ./build/lwip.a(udp.o)
                0x000000003fff32c4                udp_pcbs
 COMMON         0x000000003fff32c8       0x10 ./build/lwip.a(ip.o)
                0x000000003fff32c8                current_iphdr_src
                0x000000003fff32cc                current_netif
                0x000000003fff32d0                current_iphdr_dest
                0x000000003fff32d4                current_header
 COMMON         0x000000003fff32d8        0x4 ./build/lwip.a(tcp_in.o)
                0x000000003fff32d8                tcp_input_pcb
                0x000000003fff32e0                . = ALIGN (0x8)
 *fill*         0x000000003fff32dc        0x4 
                0x000000003fff32e0                _bss_end = ABSOLUTE (.)
                0x000000003fff32e0                _heap_start = ABSOLUTE (.)

.text           0x0000000040100000     0x756d
                0x0000000040100000                _stext = .
                0x0000000040100000                _text_start = ABSOLUTE (.)
                0x0000000040100000                . = ALIGN (0x10)
 *(.vecbase.text)
 .vecbase.text  0x0000000040100000      0x23d ./build/core.a(exception_vectors.o)
                0x0000000040100000                VecBase
                0x000000004010008c                call_user_start
                0x0000000040100229                _xt_user_exit
 *(.entry.text)
 *(.init.literal)
 *(.init)
 *(.iram1.*)
 *fill*         0x000000004010023d        0x3 
 .iram1.text    0x0000000040100240      0x26b ./build/freertos.a(queue.o)
                                        0x313 (size before relaxing)
                0x000000004010038c                xQueueGenericSend
                0x00000000401004a4                uxQueueMessagesWaitingFromISR
 *fill*         0x00000000401004ab        0x1 
 .iram1.text    0x00000000401004ac      0x4d5 ./build/freertos.a(tasks.o)
                                        0x5c8 (size before relaxing)
                0x0000000040100528                vTaskSuspendAll
                0x000000004010054c                xTaskIncrementTick
                0x00000000401006e4                xTaskResumeAll
                0x00000000401007d4                vTaskPlaceOnEventList
                0x0000000040100824                xTaskRemoveFromEventList
                0x0000000040100894                vTaskSetTimeOutState
                0x00000000401008ac                xTaskCheckForTimeOut
                0x0000000040100924                vTaskMissedYield
                0x0000000040100930                vTaskPriorityDisinherit
 *fill*         0x0000000040100981        0x3 
 .iram1.text    0x0000000040100984      0x19e ./build/freertos.a(port.o)
                                        0x1da (size before relaxing)
                0x000000004010098c                SV_ISR
                0x00000000401009d8                vPortEnterCritical
                0x0000000040100a00                vPortExitCritical
                0x0000000040100a2c                PendSV
                0x0000000040100a88                _xt_isr_attach
                0x0000000040100a98                _xt_isr_handler
 *fill*         0x0000000040100b22        0x2 
 .iram1.text    0x0000000040100b24       0x1b ./build/core.a(sdk_compat.o)
                0x0000000040100b28                zalloc
 *fill*         0x0000000040100b3f        0x1 
 .iram1.text    0x0000000040100b40       0x19 ./build/core.a(newlib_syscalls.o)
                0x0000000040100b48                _sbrk_r
 *fill*         0x0000000040100b59        0x3 
 .iram1.literal
                0x0000000040100b5c        0x0 ./build/freertos.a(queue.o)
 *fill*         0x0000000040100b5c        0x0 
 .iram1.literal
                0x0000000040100b5c        0x0 ./build/freertos.a(tasks.o)
 .iram1.literal
                0x0000000040100b5c        0x0 ./build/freertos.a(port.o)
 *fill*         0x0000000040100b5c        0x0 
 .iram1.literal
                0x0000000040100b5c        0x0 ./build/freertos.a(list.o)
 .iram1.text    0x0000000040100b5c       0x65 ./build/freertos.a(list.o)
                0x0000000040100b5c                vListInsertEnd
                0x0000000040100b74                vListInsert
                0x0000000040100ba0                uxListRemove
 *fill*         0x0000000040100bc1        0x3 
 .iram1.literal
                0x0000000040100bc4        0x0 ./build/core.a(sdk_compat.o)
 *fill*         0x0000000040100bc4        0x0 
 .iram1.literal
                0x0000000040100bc4        0x0 ./build/core.a(newlib_syscalls.o)
 *sdklib*:*(.literal .text .literal.* .text.*)
 .text          0x0000000040100bc4      0x3d2 ./build/sdklib/libmain.a(app_main.o)
                                        0x422 (size before relaxing)
                0x0000000040100cf4                sdk_user_fatal_exception_handler
                0x0000000040100de0                sdk_user_start
                0x0000000040100f28                sdk_vApplicationStackOverflowHook
                0x0000000040100f54                sdk_vApplicationIdleHook
                0x0000000040100f78                sdk_vApplicationTickHook
 *fill*         0x0000000040100f96        0x2 
 .text          0x0000000040100f98       0x94 ./build/sdklib/libmain.a(ets_timer.o)
                                         0xa0 (size before relaxing)
 .text          0x000000004010102c        0xb ./build/sdklib/libmain.a(misc.o)
                0x0000000040101030                sdk_os_get_cpu_frequency
 *fill*         0x0000000040101037        0x1 
 .text          0x0000000040101038      0x3b0 ./build/sdklib/libmain.a(spi_flash.o)
                                        0x47c (size before relaxing)
                0x0000000040101058                sdk_SPIReadModeCnfig
                0x00000000401010dc                sdk_SPIWrite
                0x00000000401011b0                sdk_SPIRead
                0x00000000401011e0                sdk_SPIEraseSector
                0x0000000040101230                sdk_spi_flash_get_id
                0x000000004010129c                sdk_spi_flash_read_status
                0x00000000401012dc                sdk_spi_flash_write_status
                0x0000000040101318                sdk_spi_flash_erase_sector
                0x000000004010134c                sdk_spi_flash_write
                0x00000000401013a4                sdk_spi_flash_read
 .text          0x00000000401013e8      0x178 ./build/sdklib/libmain.a(user_interface.o)
                                        0x19c (size before relaxing)
                0x00000000401013f0                sdk_system_restart_in_nmi
                0x00000000401014b8                sdk_system_rtc_mem_write
                0x000000004010150c                sdk_system_rtc_mem_read
 .text          0x0000000040101560      0x13f ./build/sdklib/libmain.a(os_cpu_a.o)
                                        0x177 (size before relaxing)
                0x0000000040101560                sdk_vPortYield
                0x000000004010159c                sdk__xt_int_enter
                0x00000000401015b4                sdk__xt_int_exit
                0x00000000401015dc                sdk__xt_timer_int
                0x0000000040101610                sdk__xt_timer_int1
                0x000000004010162c                sdk__xt_tick_timer_init
                0x0000000040101650                sdk__xt_isr_unmask
                0x0000000040101668                sdk__xt_isr_mask
                0x0000000040101680                sdk__xt_read_ints
                0x0000000040101690                sdk__xt_clear_ints
 *fill*         0x000000004010169f        0x1 
 .text          0x00000000401016a0        0xb ./build/sdklib/libnet80211.a(wl_chm.o)
                0x00000000401016a4                sdk_chm_get_current_channel
 *fill*         0x00000000401016ab        0x1 
 .text          0x00000000401016ac       0x4b ./build/sdklib/libphy.a(phy.o)
                                         0x53 (size before relaxing)
                0x00000000401016b4                sdk_register_phy_ops
                0x00000000401016d4                sdk_phy_change_channel
                0x00000000401016ec                sdk_phy_get_mactime
 *fill*         0x00000000401016f7        0x1 
 .text          0x00000000401016f8       0xf7 ./build/sdklib/libphy.a(phy_sleep.o)
                                        0x103 (size before relaxing)
                0x000000004010170c                sdk_pm_rtc_clock_cali
                0x00000000401017c4                sdk_clockgate_watchdog
 *fill*         0x00000000401017ef        0x1 
 .text          0x00000000401017f0        0xb ./build/sdklib/libphy.a(phy_chip_v5_romfunc.o)
                0x00000000401017f4                sdk_phy_get_romfuncs
 *fill*         0x00000000401017fb        0x1 
 .text          0x00000000401017fc       0x94 ./build/sdklib/libpp.a(esf_buf.o)
                                         0xb4 (size before relaxing)
                0x0000000040101800                sdk_esf_rx_buf_alloc
 .text          0x0000000040101890     0x14e4 ./build/sdklib/libpp.a(lmac.o)
                                       0x187c (size before relaxing)
                0x0000000040101894                sdk_lmacIsActive
                0x00000000401018a8                sdk_lmacIsIdle
                0x0000000040101cf4                sdk_lmacSetAcParam
                0x0000000040101d90                sdk_lmacProcessTXStartData
                0x0000000040101f38                sdk_lmacProcessTxSuccess
                0x0000000040102080                sdk_GetAccess
                0x000000004010208c                sdk_lmacDiscardAgedMSDU
                0x00000000401020a0                sdk_lmacRecycleMPDU
                0x0000000040102580                sdk_lmacProcessCollisions
                0x00000000401025dc                sdk_lmacProcessCollision
                0x0000000040102660                sdk_lmacMSDUAged
                0x00000000401029e4                sdk_lmacProcessCtsTimeout
                0x0000000040102a2c                sdk_lmacProcessAckTimeout
                0x0000000040102a80                sdk_lmacProcessRtsStart
                0x0000000040102a8c                sdk_lmacProcessTxRtsError
                0x0000000040102b24                sdk_lmacProcessTxError
                0x0000000040102ba8                sdk_lmacTxFrame
                0x0000000040102d5c                sdk_lmacRxDone
 .text          0x0000000040102d74      0xe60 ./build/sdklib/libpp.a(pp.o)
                                       0x103c (size before relaxing)
                0x0000000040102da4                sdk_pp_soft_wdt_feed
                0x0000000040102ebc                sdk_ppProcessTxQ
                0x0000000040102fac                sdk_ppFetchTxQFirstAvail
                0x0000000040102fec                sdk_ppDequeueTxQ
                0x0000000040103014                sdk_ppRollBackTxQ
                0x0000000040103038                sdk_ppRecordBarRRC
                0x0000000040103048                sdk_ppTxqUpdateBitmap
                0x000000004010306c                sdk_ppEnqueueTxDone
                0x00000000401030a0                sdk_ppEnqueueRxq
                0x0000000040103868                sdk_ppDiscardMPDU
                0x0000000040103898                sdk_MacIsrSigPostDefHdl
                0x0000000040103984                sdk_pp_post
                0x0000000040103a80                sdk_ppCalTxop
                0x0000000040103b64                sdk_ppCalFrameTimes
 .text          0x0000000040103bd4       0xf5 ./build/sdklib/libpp.a(rate_control.o)
                                        0x109 (size before relaxing)
                0x0000000040103bf4                sdk_RC_GetAckRate
                0x0000000040103c00                sdk_RC_GetRtsRate
                0x0000000040103c10                sdk_RC_GetAckTime
                0x0000000040103c24                sdk_RC_GetCtsTime
                0x0000000040103c5c                sdk_RC_GetBlockAckTime
 *fill*         0x0000000040103cc9        0x3 
 .text          0x0000000040103ccc      0x7f9 ./build/sdklib/libpp.a(trc.o)
                                        0x81d (size before relaxing)
                0x0000000040103e44                sdk_rcUpdateTxDone
                0x0000000040103ed8                sdk_rcUpdateRxDone
                0x0000000040103f34                sdk_rcUpdateDataRxDone
                0x0000000040103f4c                sdk_rcGetSched
                0x0000000040103ff4                sdk_rcGetRate
                0x00000000401043f8                sdk_rcReachRetryLimit
                0x0000000040104410                sdk_trc_NeedRTS
 *fill*         0x00000000401044c5        0x3 
 .text          0x00000000401044c8     0x1153 ./build/sdklib/libpp.a(wdev.o)
                                       0x1473 (size before relaxing)
                0x000000004010481c                sdk_wDev_MacTimSetFunc
                0x000000004010483c                sdk_wDev_MacTimArm
                0x00000000401048e0                sdk_wDev_MacTim1Arm
                0x00000000401049bc                sdk_wDev_ProcessFiq
                0x0000000040104d60                sdk_wDev_EnableTransmit
                0x0000000040104da4                sdk_wDev_DisableTransmit
                0x0000000040104dc4                sdk_Tx_Copy2Queue
                0x0000000040104e0c                sdk_wDev_ProcessCollision
                0x0000000040104e30                sdk_wDev_GetTxqCollisions
                0x0000000040104e40                sdk_wDev_ClearTxqCollisions
                0x0000000040104e5c                sdk_wDev_SetWaitingQueue
                0x0000000040104ea8                sdk_wDev_ClearWaitingQueue
                0x0000000040104ecc                sdk_wDev_SetFrameAckType
                0x0000000040104f30                sdk_wDev_AppendRxBlocks
                0x00000000401050d8                sdk_wDev_AppendRxAmpduLensBlocks
                0x0000000040105210                sdk_wDev_GetBAInfo
 *fill*         0x000000004010561b        0x1 
 .literal       0x000000004010561c        0x0 ./build/sdklib/libmain.a(app_main.o)
 *fill*         0x000000004010561c        0x0 
 .literal       0x000000004010561c        0x0 ./build/sdklib/libmain.a(ets_timer.o)
 .literal       0x000000004010561c        0x0 ./build/sdklib/libmain.a(misc.o)
 *fill*         0x000000004010561c        0x0 
 .literal       0x000000004010561c        0x0 ./build/sdklib/libmain.a(spi_flash.o)
 .text          0x000000004010561c        0x0 ./build/sdklib/libmain.a(uart.o)
 .literal       0x000000004010561c        0x0 ./build/sdklib/libmain.a(user_interface.o)
 .literal       0x000000004010561c        0x0 ./build/sdklib/libmain.a(os_cpu_a.o)
 *fill*         0x000000004010561c        0x0 
 .text          0x000000004010561c       0x3d ./build/sdklib/libmain.a(xtensa_context.o)
                0x000000004010561c                sdk__xt_context_save
                0x0000000040105638                sdk__xt_context_restore
 .text          0x0000000040105659        0x0 ./build/sdklib/libmain.a(timers.o)
 .text          0x0000000040105659        0x0 ./build/sdklib/libnet80211.a(ieee80211.o)
 .text          0x0000000040105659        0x0 ./build/sdklib/libnet80211.a(ieee80211_crypto.o)
 *fill*         0x0000000040105659        0x3 
 .literal       0x000000004010565c        0x0 ./build/sdklib/libnet80211.a(ieee80211_hostap.o)
 .text          0x000000004010565c       0x25 ./build/sdklib/libnet80211.a(ieee80211_hostap.o)
 .text          0x0000000040105681        0x0 ./build/sdklib/libnet80211.a(ieee80211_ht.o)
 .text          0x0000000040105681        0x0 ./build/sdklib/libnet80211.a(ieee80211_input.o)
 .text          0x0000000040105681        0x0 ./build/sdklib/libnet80211.a(ieee80211_output.o)
 .text          0x0000000040105681        0x0 ./build/sdklib/libnet80211.a(ieee80211_phy.o)
 .text          0x0000000040105681        0x0 ./build/sdklib/libnet80211.a(ieee80211_power.o)
 .text          0x0000000040105681        0x0 ./build/sdklib/libnet80211.a(ieee80211_proto.o)
 .text          0x0000000040105681        0x0 ./build/sdklib/libnet80211.a(ieee80211_scan.o)
 .text          0x0000000040105681        0x0 ./build/sdklib/libnet80211.a(ieee80211_sta.o)
 *fill*         0x0000000040105681        0x3 
 .literal       0x0000000040105684        0x0 ./build/sdklib/libnet80211.a(wl_chm.o)
 .text          0x0000000040105684        0x0 ./build/sdklib/libnet80211.a(wl_cnx.o)
 .text          0x0000000040105684        0x0 ./build/sdklib/libnet80211.a(ieee80211_action.o)
 .text          0x0000000040105684        0x0 ./build/sdklib/libnet80211.a(ieee80211_ets.o)
 *fill*         0x0000000040105684        0x0 
 .literal       0x0000000040105684        0x0 ./build/sdklib/libphy.a(phy.o)
 .text          0x0000000040105684        0x0 ./build/sdklib/libphy.a(phy_chip_v6_ana.o)
 *fill*         0x0000000040105684        0x0 
 .literal       0x0000000040105684        0x0 ./build/sdklib/libphy.a(phy_chip_v6.o)
 .text          0x0000000040105684        0x2 ./build/sdklib/libphy.a(phy_chip_v6.o)
                0x0000000040105684                sdk_ram_tx_mac_disable
 .text          0x0000000040105686        0x0 ./build/sdklib/libphy.a(phy_chip_v6_cal.o)
 .text          0x0000000040105686        0x0 ./build/sdklib/libphy.a(phy_chip_v6_unused.o)
 *fill*         0x0000000040105686        0x2 
 .literal       0x0000000040105688        0x0 ./build/sdklib/libphy.a(phy_sleep.o)
 *fill*         0x0000000040105688        0x0 
 .literal       0x0000000040105688        0x0 ./build/sdklib/libphy.a(phy_chip_v5_romfunc.o)
 .text          0x0000000040105688        0x0 ./build/sdklib/libphy.a(phy_chip_v5_ana_romfunc.o)
 .text          0x0000000040105688        0x0 ./build/sdklib/libphy.a(phy_chip_v5_cal_romfunc.o)
 *fill*         0x0000000040105688        0x0 
 .literal       0x0000000040105688        0x0 ./build/sdklib/libpp.a(esf_buf.o)
 .text          0x0000000040105688        0x0 ./build/sdklib/libpp.a(if_hwctrl.o)
 .literal       0x0000000040105688        0x0 ./build/sdklib/libpp.a(lmac.o)
 .text          0x0000000040105688        0x0 ./build/sdklib/libpp.a(pm.o)
 .literal       0x0000000040105688        0x0 ./build/sdklib/libpp.a(pp.o)
 .literal       0x0000000040105688        0x0 ./build/sdklib/libpp.a(rate_control.o)
 *fill*         0x0000000040105688        0x0 
 .literal       0x0000000040105688        0x0 ./build/sdklib/libpp.a(trc.o)
 *fill*         0x0000000040105688        0x0 
 .literal       0x0000000040105688        0x0 ./build/sdklib/libpp.a(wdev.o)
 .text          0x0000000040105688        0x0 ./build/sdklib/libwpa.a(ap_config.o)
 .text          0x0000000040105688        0x0 ./build/sdklib/libwpa.a(common.o)
 .text          0x0000000040105688        0x0 ./build/sdklib/libwpa.a(os_xtensa.o)
 .text          0x0000000040105688        0x0 ./build/sdklib/libwpa.a(sha1-pbkdf2.o)
 *fill*         0x0000000040105688        0x0 
 .literal       0x0000000040105688        0x0 ./build/sdklib/libwpa.a(wpa_auth.o)
 .text          0x0000000040105688       0x11 ./build/sdklib/libwpa.a(wpa_auth.o)
 .text          0x0000000040105699        0x0 ./build/sdklib/libwpa.a(wpa_auth_ie.o)
 .text          0x0000000040105699        0x0 ./build/sdklib/libwpa.a(wpa.o)
 .text          0x0000000040105699        0x0 ./build/sdklib/libwpa.a(wpa_common.o)
 .text          0x0000000040105699        0x0 ./build/sdklib/libwpa.a(wpa_debug.o)
 .text          0x0000000040105699        0x0 ./build/sdklib/libwpa.a(wpa_ie.o)
 .text          0x0000000040105699        0x0 ./build/sdklib/libwpa.a(wpa_main.o)
 .text          0x0000000040105699        0x0 ./build/sdklib/libwpa.a(wpas_glue.o)
 .text          0x0000000040105699        0x0 ./build/sdklib/libwpa.a(aes-unwrap.o)
 .text          0x0000000040105699        0x0 ./build/sdklib/libwpa.a(aes-wrap.o)
 .text          0x0000000040105699        0x0 ./build/sdklib/libwpa.a(md5.o)
 .text          0x0000000040105699        0x0 ./build/sdklib/libwpa.a(md5-internal.o)
 .text          0x0000000040105699        0x0 ./build/sdklib/libwpa.a(rc4.o)
 .text          0x0000000040105699        0x0 ./build/sdklib/libwpa.a(sha1.o)
 .text          0x0000000040105699        0x0 ./build/sdklib/libwpa.a(sha1-internal.o)
 .text          0x0000000040105699        0x0 ./build/sdklib/libwpa.a(aes-internal-dec.o)
 .text          0x0000000040105699        0x0 ./build/sdklib/libwpa.a(aes-internal-enc.o)
 .text          0x0000000040105699        0x0 ./build/sdklib/libwpa.a(aes-internal.o)
 .text          0x0000000040105699        0x0 ./build/sdklib/libnet80211.a(ieee80211_crypto_ccmp.o)
 .text          0x0000000040105699        0x0 ./build/sdklib/libnet80211.a(ieee80211_crypto_tkip.o)
 .text          0x0000000040105699        0x0 ./build/sdklib/libnet80211.a(ieee80211_crypto_wep.o)
 *libgcc.a:*i3.o(.literal .text .literal.* .text.*)
 *fill*         0x0000000040105699        0x3 
 .literal       0x000000004010569c        0x0 /root/ESP8266/esp-open-sdk/xtensa-lx106-elf/lib/gcc/xtensa-lx106-elf/4.8.2/libgcc.a(_muldi3.o)
                                          0x4 (size before relaxing)
 .literal       0x000000004010569c        0x0 /root/ESP8266/esp-open-sdk/xtensa-lx106-elf/lib/gcc/xtensa-lx106-elf/4.8.2/libgcc.a(_divdi3.o)
                                         0x48 (size before relaxing)
 .literal       0x000000004010569c        0x0 /root/ESP8266/esp-open-sdk/xtensa-lx106-elf/lib/gcc/xtensa-lx106-elf/4.8.2/libgcc.a(_udivdi3.o)
                                         0x48 (size before relaxing)
 .literal       0x000000004010569c        0x0 /root/ESP8266/esp-open-sdk/xtensa-lx106-elf/lib/gcc/xtensa-lx106-elf/4.8.2/libgcc.a(_umoddi3.o)
                                         0x40 (size before relaxing)
 .literal       0x000000004010569c        0x4 ../../libc/xtensa-lx106-elf/lib/libc.a(lib_a-malloc.o)
                                         0x10 (size before relaxing)
 .literal       0x00000000401056a0        0x8 ../../libc/xtensa-lx106-elf/lib/libc.a(lib_a-nano-mallocr.o)
                                         0x14 (size before relaxing)
 .literal       0x00000000401056a8        0x0 ../../libc/xtensa-lx106-elf/lib/libc.a(lib_a-nano-freer.o)
                                          0x4 (size before relaxing)
 .literal       0x00000000401056a8        0x8 ../../libc/xtensa-lx106-elf/lib/libc.a(lib_a-rand.o)
                                         0x18 (size before relaxing)
 .literal       0x00000000401056b0        0x0 ../../libc/xtensa-lx106-elf/lib/libc.a(lib_a-printf.o)
                                          0xc (size before relaxing)
 .literal       0x00000000401056b0        0x0 ../../libc/xtensa-lx106-elf/lib/libc.a(lib_a-sprintf.o)
                                         0x14 (size before relaxing)
 .literal       0x00000000401056b0        0x0 ../../libc/xtensa-lx106-elf/lib/libc.a(lib_a-fprintf.o)
                                          0xc (size before relaxing)
 .literal       0x00000000401056b0       0x20 ../../libc/xtensa-lx106-elf/lib/libc.a(lib_a-nano-svfprintf.o)
                                         0x4c (size before relaxing)
 .literal       0x00000000401056d0       0x1c ../../libc/xtensa-lx106-elf/lib/libc.a(lib_a-nano-vfprintf.o)
                                         0x4c (size before relaxing)
 .literal       0x00000000401056ec       0x34 ../../libc/xtensa-lx106-elf/lib/libc.a(lib_a-findfp.o)
                                         0x7c (size before relaxing)
 .literal       0x0000000040105720        0x8 ../../libc/xtensa-lx106-elf/lib/libc.a(lib_a-fputwc.o)
                                         0x20 (size before relaxing)
 .text          0x0000000040105728       0x36 /root/ESP8266/esp-open-sdk/xtensa-lx106-elf/lib/gcc/xtensa-lx106-elf/4.8.2/libgcc.a(_muldi3.o)
                0x0000000040105728                __muldi3
 *fill*         0x000000004010575e        0x2 
 .text          0x0000000040105760      0x3eb /root/ESP8266/esp-open-sdk/xtensa-lx106-elf/lib/gcc/xtensa-lx106-elf/4.8.2/libgcc.a(_divdi3.o)
                                        0x41b (size before relaxing)
                0x0000000040105760                __divdi3
 *fill*         0x0000000040105b4b        0x1 
 .text          0x0000000040105b4c      0x38d /root/ESP8266/esp-open-sdk/xtensa-lx106-elf/lib/gcc/xtensa-lx106-elf/4.8.2/libgcc.a(_udivdi3.o)
                                        0x3b5 (size before relaxing)
                0x0000000040105b4c                __udivdi3
 *fill*         0x0000000040105ed9        0x3 
 .text          0x0000000040105edc      0x33a /root/ESP8266/esp-open-sdk/xtensa-lx106-elf/lib/gcc/xtensa-lx106-elf/4.8.2/libgcc.a(_umoddi3.o)
                                        0x366 (size before relaxing)
                0x0000000040105edc                __umoddi3
 *fill*         0x0000000040106216        0x2 
 .text          0x0000000040106218       0x64 /root/ESP8266/esp-open-sdk/xtensa-lx106-elf/lib/gcc/xtensa-lx106-elf/4.8.2/libgcc.a(_divsi3.o)
                0x0000000040106218                __divsi3
 .text          0x000000004010627c       0x49 /root/ESP8266/esp-open-sdk/xtensa-lx106-elf/lib/gcc/xtensa-lx106-elf/4.8.2/libgcc.a(_modsi3.o)
                0x000000004010627c                __modsi3
 *fill*         0x00000000401062c5        0x3 
 .text          0x00000000401062c8       0x4c /root/ESP8266/esp-open-sdk/xtensa-lx106-elf/lib/gcc/xtensa-lx106-elf/4.8.2/libgcc.a(_udivsi3.o)
                0x00000000401062c8                __udivsi3
 .text          0x0000000040106314       0x39 /root/ESP8266/esp-open-sdk/xtensa-lx106-elf/lib/gcc/xtensa-lx106-elf/4.8.2/libgcc.a(_umodsi3.o)
                0x0000000040106314                __umodsi3
 *fill*         0x000000004010634d        0x3 
 .text          0x0000000040106350       0x18 /root/ESP8266/esp-open-sdk/xtensa-lx106-elf/lib/gcc/xtensa-lx106-elf/4.8.2/libgcc.a(_ashrdi3.o)
                0x0000000040106350                __ashrdi3
 *fill*         0x0000000040106368        0x0 
 *fill*         0x0000000040106368        0x0 
 *fill*         0x0000000040106368        0x0 
 *fill*         0x0000000040106368        0x0 
 .text          0x0000000040106368       0x48 /root/ESP8266/esp-open-sdk/xtensa-lx106-elf/lib/gcc/xtensa-lx106-elf/4.8.2/libgcc.a(_umulsidi3.o)
                0x0000000040106368                __umulsidi3
 *libc.a:*malloc.o(.literal .text .literal.* .text.*)
 .text          0x00000000401063b0       0x35 ../../libc/xtensa-lx106-elf/lib/libc.a(lib_a-malloc.o)
                0x00000000401063b0                malloc
                0x00000000401063cc                free
 *libc.a:*mallocr.o(.literal .text .literal.* .text.*)
 *fill*         0x00000000401063e5        0x3 
 .text          0x00000000401063e8       0xd1 ../../libc/xtensa-lx106-elf/lib/libc.a(lib_a-nano-mallocr.o)
                                         0xd5 (size before relaxing)
                0x00000000401063e8                _malloc_r
 *fill*         0x00000000401064b9        0x0 
 *libc.a:*freer.o(.literal .text .literal.* .text.*)
 *fill*         0x00000000401064b9        0x3 
 .text          0x00000000401064bc       0x87 ../../libc/xtensa-lx106-elf/lib/libc.a(lib_a-nano-freer.o)
                0x00000000401064bc                _free_r
 *fill*         0x0000000040106543        0x0 
 *libc.a:*memcpy.o(.literal .text .literal.* .text.*)
 *fill*         0x0000000040106543        0x1 
 .text          0x0000000040106544      0x145 ../../libc/xtensa-lx106-elf/lib/libc.a(lib_a-memcpy.o)
                0x0000000040106588                memcpy
 *libc.a:*memset.o(.literal .text .literal.* .text.*)
 *fill*         0x0000000040106689        0x3 
 .text          0x000000004010668c       0x7c ../../libc/xtensa-lx106-elf/lib/libc.a(lib_a-memset.o)
                0x00000000401066b8                memset
 *libc.a:*memcmp.o(.literal .text .literal.* .text.*)
 .text          0x0000000040106708       0x23 ../../libc/xtensa-lx106-elf/lib/libc.a(lib_a-memcmp.o)
                0x0000000040106708                memcmp
 *libc.a:*rand.o(.literal .text .literal.* .text.*)
 *fill*         0x000000004010672b        0x1 
 .text          0x000000004010672c       0x4b ../../libc/xtensa-lx106-elf/lib/libc.a(lib_a-rand.o)
                                         0x4f (size before relaxing)
                0x000000004010672c                srand
                0x000000004010673c                rand
 *fill*         0x0000000040106777        0x0 
 *libc.a:*bzero.o(.literal .text .literal.* .text.*)
 *fill*         0x0000000040106777        0x1 
 .text          0x0000000040106778       0x12 ../../libc/xtensa-lx106-elf/lib/libc.a(lib_a-bzero.o)
                0x0000000040106778                bzero
 *libc.a:*lock.o(.literal .text .literal.* .text.*)
 *fill*         0x000000004010678a        0x2 
 .text          0x000000004010678c        0x8 ../../libc/xtensa-lx106-elf/lib/libc.a(lock.o)
                0x000000004010678c                _lock_close_recursive
                0x000000004010678c                __dummy_lock
                0x000000004010678c                _lock_init_recursive
                0x000000004010678c                _lock_close
                0x000000004010678c                _lock_init
                0x0000000040106790                __dummy_lock_try
 *libc.a:*printf.o(.literal .text .literal.* .text.*)
 .text          0x0000000040106794       0x61 ../../libc/xtensa-lx106-elf/lib/libc.a(lib_a-printf.o)
                                         0x65 (size before relaxing)
                0x0000000040106794                _printf_r
                0x0000000040106794                _iprintf_r
                0x00000000401067c0                printf
                0x00000000401067c0                iprintf
 *fill*         0x00000000401067f5        0x3 
 .text          0x00000000401067f8       0xb5 ../../libc/xtensa-lx106-elf/lib/libc.a(lib_a-sprintf.o)
                                         0xb9 (size before relaxing)
                0x00000000401067f8                _siprintf_r
                0x00000000401067f8                _sprintf_r
                0x0000000040106850                sprintf
                0x0000000040106850                siprintf
 *fill*         0x00000000401068ad        0x3 
 .text          0x00000000401068b0       0x57 ../../libc/xtensa-lx106-elf/lib/libc.a(lib_a-fprintf.o)
                                         0x5b (size before relaxing)
                0x00000000401068b0                _fprintf_r
                0x00000000401068b0                _fiprintf_r
                0x00000000401068d4                fprintf
                0x00000000401068d4                fiprintf
 *fill*         0x0000000040106907        0x1 
 .text          0x0000000040106908      0x467 ../../libc/xtensa-lx106-elf/lib/libc.a(lib_a-nano-svfprintf.o)
                                        0x46b (size before relaxing)
                0x0000000040106908                __ssputs_r
                0x0000000040106a00                __ssprint_r
                0x0000000040106b34                _svfprintf_r
                0x0000000040106b34                _svfiprintf_r
 *fill*         0x0000000040106d6f        0x1 
 .text          0x0000000040106d70      0x3df ../../libc/xtensa-lx106-elf/lib/libc.a(lib_a-nano-vfprintf.o)
                                        0x3e3 (size before relaxing)
                0x0000000040106da8                __sfputs_r
                0x0000000040106e18                __sprint_r
                0x0000000040106ea8                _vfiprintf_r
                0x0000000040106ea8                _vfprintf_r
                0x0000000040107128                vfiprintf
                0x0000000040107128                vfprintf
 *fill*         0x000000004010714f        0x0 
 *fill*         0x000000004010714f        0x0 
 *fill*         0x000000004010714f        0x0 
 *fill*         0x000000004010714f        0x0 
 *libc.a:*findfp.o(.literal .text .literal.* .text.*)
 *fill*         0x000000004010714f        0x1 
 .text          0x0000000040107150      0x29f ../../libc/xtensa-lx106-elf/lib/libc.a(lib_a-findfp.o)
                                        0x2b3 (size before relaxing)
                0x0000000040107150                _cleanup_r
                0x00000000401071f4                __sfmoreglue
                0x0000000040107238                _cleanup
                0x000000004010724c                __sfp_lock_acquire
                0x0000000040107264                __sfp_lock_release
                0x000000004010727c                __sinit_lock_acquire
                0x0000000040107294                __sinit_lock_release
                0x00000000401072ac                __sinit
                0x0000000040107304                __sfp
                0x00000000401073b0                __fp_lock_all
                0x00000000401073d0                __fp_unlock_all
 *fill*         0x00000000401073ef        0x0 
 *libc.a:*fputwc.o(.literal .text .literal.* .text.*)
 *fill*         0x00000000401073ef        0x1 
 .text          0x00000000401073f0      0x176 ../../libc/xtensa-lx106-elf/lib/libc.a(lib_a-fputwc.o)
                                        0x17e (size before relaxing)
                0x00000000401073f0                __fputwc
                0x00000000401074c0                _fputwc_r
                0x0000000040107530                fputwc
 *fill*         0x0000000040107566        0x0 
 *libhal.a:*set_intset.o(.literal .text .literal.* .text.*)
 *fill*         0x0000000040107566        0x2 
 .text          0x0000000040107568        0x5 /root/ESP8266/esp-open-sdk/xtensa-lx106-elf/xtensa-lx106-elf/sysroot/usr/lib/libhal.a(int_asm--set_intset.o)
                0x0000000040107568                xthal_set_intset
 *(.stub .gnu.warning .gnu.linkonce.literal.* .gnu.linkonce.t.*.literal .gnu.linkonce.t.*)
 *(.fini.literal)
 *(.fini)
 *(.gnu.version)
                0x000000004010756d                _text_end = ABSOLUTE (.)
                0x000000004010756d                _etext = .

.vecbase.literal
                0x0000000040107570        0x0
 .vecbase.literal
                0x0000000040107570        0x0 ./build/core.a(exception_vectors.o)

.irom0.text     0x0000000040240000    0x398c0
                0x0000000040240000                _irom0_text_start = ABSOLUTE (.)
 *(.literal .text .literal.* .text.*)
 .text          0x0000000040240000      0x42e ./build/program.a(http_get_ssl.o)
                                        0x5ea (size before relaxing)
                0x000000004024008c                http_get_task
                0x00000000402403b8                user_init
 *fill*         0x000000004024042e        0x2 
 .text          0x0000000040240430      0x515 ./build/freertos.a(queue.o)
                                        0x5b9 (size before relaxing)
                0x0000000040240474                xQueueGenericReset
                0x00000000402404fc                xQueueGenericCreate
                0x0000000040240564                xQueueCreateMutex
                0x00000000402405cc                xQueueGenericSendFromISR
                0x0000000040240654                xQueueGenericReceive
                0x00000000402407d4                xQueueReceiveFromISR
                0x0000000040240848                xQueuePeekFromISR
                0x0000000040240874                uxQueueMessagesWaiting
                0x000000004024089c                vQueueDelete
                0x00000000402408c0                xQueueIsQueueEmptyFromISR
                0x00000000402408d0                xQueueIsQueueFullFromISR
                0x00000000402408e4                vQueueWaitForMessageRestricted
 *fill*         0x0000000040240945        0x3 
 .text          0x0000000040240948      0xa10 ./build/freertos.a(tasks.o)
                                        0xc1c (size before relaxing)
                0x00000000402409a0                xTaskGenericCreate
                0x0000000040240b88                vTaskDelete
                0x0000000040240c10                uxTaskPriorityGet
                0x0000000040240c40                vTaskPrioritySet
                0x0000000040240d10                xTaskIsTaskSuspended
                0x0000000040240d30                vTaskResume
                0x0000000040240dc8                xTaskResumeFromISR
                0x0000000040240e7c                vTaskStartScheduler
                0x0000000040240ee0                vTaskEndScheduler
                0x0000000040240f18                xTaskGetTickCount
                0x0000000040240f40                xTaskGetTickCountFromISR
                0x0000000040240f4c                uxTaskGetNumberOfTasks
                0x0000000040240f58                xTaskGetIdleTaskHandle
                0x0000000040240f64                vTaskDelayUntil
                0x0000000040240fdc                vTaskDelay
                0x00000000402410d4                vTaskSwitchContext
                0x0000000040241198                vTaskSuspend
                0x0000000040241228                vTaskPlaceOnEventListRestricted
                0x000000004024126c                uxTaskGetStackHighWaterMark
                0x000000004024129c                xTaskGetCurrentTaskHandle
                0x00000000402412a8                xTaskGetSchedulerState
                0x00000000402412c8                vTaskPriorityInherit
 .text          0x0000000040241358      0x3c8 ./build/freertos.a(timers.o)
                                        0x478 (size before relaxing)
                0x0000000040241420                xTimerCreateTimerTask
                0x0000000040241458                xTimerCreate
                0x00000000402414a8                xTimerGenericCommand
                0x00000000402416e8                xTimerGetTimerDaemonTaskHandle
                0x00000000402416f0                xTimerIsTimerActive
                0x000000004024171c                pvTimerGetTimerID
 .text          0x0000000040241720       0xea ./build/freertos.a(port.o)
                                        0x10a (size before relaxing)
                0x0000000040241724                pxPortInitialiseStack
                0x000000004024175c                xPortSysTickHandle
                0x000000004024178c                xPortStartScheduler
                0x00000000402417e0                xPortGetFreeHeapSize
                0x0000000040241808                vPortEndScheduler
 *fill*         0x000000004024180a        0x2 
 .text          0x000000004024180c       0xbb ./build/lwip.a(esp_interface.o)
                                         0xce (size before relaxing)
                0x000000004024184c                ethernetif_init
                0x000000004024187c                ethernetif_input
 *fill*         0x00000000402418c7        0x1 
 .text          0x00000000402418c8      0x299 ./build/lwip.a(netdb.o)
                                        0x2bd (size before relaxing)
                0x00000000402418dc                lwip_gethostbyname
                0x0000000040241930                lwip_gethostbyname_r
                0x0000000040241a14                lwip_freeaddrinfo
                0x0000000040241a48                lwip_getaddrinfo
 *fill*         0x0000000040241b61        0x3 
 .text          0x0000000040241b64     0x150d ./build/lwip.a(sockets.o)
                                       0x1731 (size before relaxing)
                0x0000000040242268                lwip_socket_init
                0x000000004024226c                lwip_accept
                0x00000000402423bc                lwip_bind
                0x0000000040242430                lwip_close
                0x0000000040242498                lwip_connect
                0x0000000040242520                lwip_listen
                0x000000004024259c                lwip_recvfrom
                0x00000000402427e4                lwip_read
                0x00000000402427fc                lwip_recv
                0x0000000040242810                lwip_sendto
                0x00000000402428e0                lwip_send
                0x000000004024296c                lwip_socket
                0x0000000040242a00                lwip_write
                0x0000000040242a18                lwip_select
                0x0000000040242ccc                lwip_shutdown
                0x0000000040242d58                lwip_getpeername
                0x0000000040242d6c                lwip_getsockname
                0x0000000040242d84                lwip_getsockopt
                0x0000000040242eb8                lwip_setsockopt
                0x0000000040242fd0                lwip_ioctl
                0x0000000040243024                lwip_fcntl
 *fill*         0x0000000040243071        0x3 
 .text          0x0000000040243074      0x39e ./build/lwip.a(tcpip.o)
                                        0x46a (size before relaxing)
                0x0000000040243144                tcpip_input
                0x00000000402431ac                tcpip_callback_with_block
                0x000000004024322c                tcpip_timeout
                0x000000004024328c                tcpip_untimeout
                0x00000000402432e0                tcpip_apimsg
                0x0000000040243324                tcpip_callbackmsg_new
                0x0000000040243354                tcpip_callbackmsg_delete
                0x0000000040243368                tcpip_trycallback
                0x0000000040243398                tcpip_init
                0x00000000402433dc                pbuf_free_callback
                0x00000000402433f8                mem_free_callback
 *fill*         0x0000000040243412        0x2 
 .text          0x0000000040243414     0x1660 ./build/lwip.a(dhcp.o)
                                       0x1828 (size before relaxing)
                0x000000004024434c                dhcp_set_struct
                0x0000000040244374                dhcp_cleanup
                0x0000000040244398                dhcp_inform
                0x0000000040244498                dhcp_network_changed
                0x00000000402444e4                dhcp_arp_reply
                0x00000000402445ec                dhcp_renew
                0x000000004024470c                dhcp_coarse_tmr
                0x000000004024479c                dhcp_release
                0x00000000402448a0                dhcp_fine_tmr
                0x0000000040244974                dhcp_stop
                0x00000000402449b8                dhcp_start
 .text          0x0000000040244a74      0x5aa ./build/lwip.a(dns.o)
                                        0x652 (size before relaxing)
                0x0000000040244e78                dns_init
                0x0000000040244ed8                dns_setserver
                0x0000000040244ef8                dns_getserver
                0x0000000040244f10                dns_tmr
                0x0000000040244f2c                dns_gethostbyname
 *fill*         0x000000004024501e        0x2 
 .text          0x0000000040245020       0x25 ./build/lwip.a(init.o)
                                         0x5d (size before relaxing)
                0x0000000040245020                lwip_init
 *fill*         0x0000000040245045        0x3 
 .text          0x0000000040245048      0x27c ./build/lwip.a(netif.o)
                                        0x2a4 (size before relaxing)
                0x0000000040245048                netif_init
                0x000000004024504c                netif_find
                0x0000000040245088                netif_set_ipaddr
                0x00000000402450f8                netif_set_addr
                0x000000004024512c                netif_add
                0x00000000402451a0                netif_set_gw
                0x00000000402451a8                netif_set_netmask
                0x00000000402451b4                netif_set_default
                0x00000000402451bc                netif_set_up
                0x00000000402451ec                netif_set_down
                0x0000000040245210                netif_remove
                0x000000004024526c                netif_set_link_up
                0x00000000402452b4                netif_set_link_down
 .text          0x00000000402452c4      0x69b ./build/lwip.a(pbuf.o)
                                        0x6fb (size before relaxing)
                0x00000000402452c4                pbuf_header
                0x000000004024535c                pbuf_free
                0x00000000402453d0                pbuf_alloc
                0x0000000040245538                pbuf_realloc
                0x000000004024558c                pbuf_clen
                0x00000000402455a0                pbuf_ref
                0x00000000402455c8                pbuf_cat
                0x00000000402455f4                pbuf_chain
                0x0000000040245634                pbuf_dechain
                0x000000004024566c                pbuf_copy
                0x00000000402456e0                pbuf_copy_partial
                0x0000000040245774                pbuf_take
                0x00000000402457ec                pbuf_coalesce
                0x000000004024582c                pbuf_get_at
                0x0000000040245850                pbuf_memcmp
                0x00000000402458c0                pbuf_memfind
                0x000000004024591c                pbuf_strstr
 *fill*         0x000000004024595f        0x1 
 .text          0x0000000040245960      0xea2 ./build/lwip.a(tcp.o)
                                       0x100a (size before relaxing)
                0x00000000402459c8                tcp_init
                0x00000000402459d0                tcp_bind
                0x0000000040245a74                tcp_listen_with_backlog
                0x0000000040245b68                tcp_update_rcv_ann_wnd
                0x0000000040245bb0                tcp_recved
                0x0000000040245bfc                tcp_seg_free
                0x0000000040245c24                tcp_segs_free
                0x0000000040245c44                tcp_setprio
                0x0000000040245c4c                tcp_arg
                0x0000000040245c50                tcp_recv
                0x0000000040245c58                tcp_sent
                0x0000000040245c60                tcp_err
                0x0000000040245c68                tcp_accept
                0x0000000040245c6c                tcp_poll
                0x0000000040245c74                tcp_pcb_purge
                0x0000000040245cf0                tcp_slowtmr
                0x0000000040245fd0                tcp_pcb_remove
                0x00000000402461d4                tcp_close
                0x00000000402461f8                tcp_recv_null
                0x0000000040246238                tcp_process_refused_data
                0x00000000402462cc                tcp_fasttmr
                0x0000000040246354                tcp_tmr
                0x0000000040246378                tcp_shutdown
                0x00000000402463ec                tcp_abandon
                0x000000004024649c                tcp_abort
                0x0000000040246504                tcp_alloc
                0x0000000040246624                tcp_new
                0x0000000040246638                tcp_next_iss
                0x0000000040246648                tcp_eff_send_mss
                0x0000000040246680                tcp_connect
                0x00000000402467f8                tcp_debug_state_str
 *fill*         0x0000000040246802        0x2 
 .text          0x0000000040246804     0x1017 ./build/lwip.a(tcp_out.o)
                                       0x1147 (size before relaxing)
                0x0000000040246a2c                tcp_write
                0x0000000040246da0                tcp_enqueue_flags
                0x0000000040246e98                tcp_send_fin
                0x0000000040246ef0                tcp_send_empty_ack
                0x0000000040246f88                tcp_output
                0x0000000040247404                tcp_rst
                0x0000000040247540                tcp_rexmit_rto
                0x000000004024757c                tcp_rexmit
                0x000000004024763c                tcp_rexmit_fast
                0x000000004024769c                tcp_keepalive
                0x000000004024772c                tcp_zero_window_probe
 *fill*         0x000000004024781b        0x1 
 .text          0x000000004024781c      0x286 ./build/lwip.a(timers.o)
                                        0x2fe (size before relaxing)
                0x0000000040247820                sys_timeout
                0x00000000402478a8                tcp_timer_needed
                0x0000000040247928                sys_timeouts_init
                0x00000000402479d4                sys_untimeout
                0x0000000040247a24                sys_timeouts_mbox_fetch
 *fill*         0x0000000040247aa2        0x2 
 .text          0x0000000040247aa4      0x5f5 ./build/lwip.a(udp.o)
                                        0x69d (size before relaxing)
                0x0000000040247aa4                udp_init
                0x0000000040247ab4                udp_input
                0x0000000040247d2c                udp_bind
                0x0000000040247de4                udp_sendto_if
                0x0000000040247f30                udp_sendto
                0x0000000040247f84                udp_send
                0x0000000040247fa0                udp_connect
                0x0000000040248010                udp_disconnect
                0x0000000040248024                udp_recv
                0x000000004024802c                udp_remove
                0x0000000040248068                udp_new
 *fill*         0x0000000040248099        0x3 
 .text          0x000000004024809c      0x2b3 ./build/lwip.a(icmp.o)
                                        0x35b (size before relaxing)
                0x000000004024809c                icmp_input
                0x000000004024829c                icmp_dest_unreach
 *fill*         0x000000004024834f        0x1 
 .text          0x0000000040248350      0x2bb ./build/lwip.a(inet_chksum.o)
                                        0x2bf (size before relaxing)
                0x00000000402483d4                inet_chksum_pseudo
                0x0000000040248498                inet_chksum_pseudo_partial
                0x0000000040248580                inet_chksum
                0x000000004024859c                inet_chksum_pbuf
 *fill*         0x000000004024860b        0x1 
 .text          0x000000004024860c      0x324 ./build/lwip.a(ip_addr.o)
                                        0x338 (size before relaxing)
                0x000000004024860c                ip4_addr_isbroadcast
                0x0000000040248648                ip4_addr_netmask_valid
                0x0000000040248694                ipaddr_aton
                0x0000000040248818                ipaddr_addr
                0x0000000040248838                ipaddr_ntoa_r
                0x000000004024891c                ipaddr_ntoa
 .text          0x0000000040248930      0x517 ./build/lwip.a(ip.o)
                                        0x5a3 (size before relaxing)
                0x0000000040248930                ip_route
                0x000000004024897c                ip_input
                0x0000000040248c58                ip_output_if
                0x0000000040248df0                ip_output
 *fill*         0x0000000040248e47        0x1 
 .text          0x0000000040248e48      0x17b ./build/lwip.a(ip_frag.o)
                                        0x1af (size before relaxing)
                0x0000000040248e4c                ip_frag
 *fill*         0x0000000040248fc3        0x1 
 .text          0x0000000040248fc4      0xa3d ./build/lwip.a(etharp.o)
                                        0xb3d (size before relaxing)
                0x0000000040249154                etharp_tmr
                0x00000000402491c0                etharp_cleanup_netif
                0x0000000040249210                etharp_find_addr
                0x0000000040249264                etharp_request
                0x00000000402493dc                etharp_query
                0x000000004024959c                etharp_output
                0x00000000402496c4                ethernet_input
 *fill*         0x0000000040249a01        0x3 
 .text          0x0000000040249a04      0x417 ./build/lwip.a(sys_arch.o)
                                        0x4ff (size before relaxing)
                0x0000000040249a04                sys_mbox_new
                0x0000000040249a48                sys_mbox_free
                0x0000000040249a80                sys_mbox_post
                0x0000000040249aac                sys_mbox_trypost
                0x0000000040249af8                sys_arch_mbox_fetch
                0x0000000040249b78                sys_arch_mbox_tryfetch
                0x0000000040249bb8                sys_sem_new
                0x0000000040249c28                sys_arch_sem_wait
                0x0000000040249c9c                sys_mutex_new
                0x0000000040249ce4                sys_mutex_lock
                0x0000000040249d08                sys_mutex_unlock
                0x0000000040249d24                sys_mutex_free
                0x0000000040249d44                sys_sem_signal
                0x0000000040249d78                sys_sem_free
                0x0000000040249d98                sys_init
                0x0000000040249d9c                sys_now
                0x0000000040249dac                sys_thread_new
                0x0000000040249de0                sys_arch_protect
                0x0000000040249dfc                sys_arch_unprotect
                0x0000000040249e18                sys_assert
 *fill*         0x0000000040249e1b        0x1 
 .text          0x0000000040249e1c      0x673 ./build/lwip.a(api_lib.o)
                                        0x7bf (size before relaxing)
                0x0000000040249f64                netconn_new_with_proto_and_callback
                0x0000000040249fc0                netconn_delete
                0x0000000040249ff0                netconn_getaddr
                0x000000004024a040                netconn_bind
                0x000000004024a08c                netconn_connect
                0x000000004024a0d8                netconn_disconnect
                0x000000004024a120                netconn_listen_with_backlog
                0x000000004024a164                netconn_accept
                0x000000004024a200                netconn_recv_tcp_pbuf
                0x000000004024a214                netconn_recv
                0x000000004024a2a4                netconn_recved
                0x000000004024a2d4                netconn_send
                0x000000004024a318                netconn_sendto
                0x000000004024a344                netconn_write_partly
                0x000000004024a3f4                netconn_close
                0x000000004024a408                netconn_shutdown
                0x000000004024a434                netconn_gethostbyname
 *fill*         0x000000004024a48f        0x1 
 .text          0x000000004024a490      0xed7 ./build/lwip.a(api_msg.o)
                                       0x118f (size before relaxing)
                0x000000004024abb8                do_newconn
                0x000000004024ac6c                netconn_alloc
                0x000000004024adc0                netconn_free
                0x000000004024ade8                do_delconn
                0x000000004024ae8c                do_bind
                0x000000004024af08                do_connect
                0x000000004024afbc                do_disconnect
                0x000000004024b000                do_listen
                0x000000004024b0cc                do_send
                0x000000004024b164                do_recv
                0x000000004024b1c0                do_write
                0x000000004024b21c                do_getaddr
                0x000000004024b2bc                do_close
                0x000000004024b328                do_gethostbyname
 *fill*         0x000000004024b367        0x1 
 .text          0x000000004024b368      0x172 ./build/lwip.a(netbuf.o)
                                        0x1a2 (size before relaxing)
                0x000000004024b368                netbuf_new
                0x000000004024b390                netbuf_delete
                0x000000004024b3c0                netbuf_alloc
                0x000000004024b3f8                netbuf_free
                0x000000004024b41c                netbuf_ref
                0x000000004024b46c                netbuf_chain
                0x000000004024b498                netbuf_data
                0x000000004024b4b4                netbuf_next
                0x000000004024b4d4                netbuf_first
 *fill*         0x000000004024b4da        0x2 
 .text          0x000000004024b4dc      0x1f5 ./build/lwip.a(raw.o)
                                        0x241 (size before relaxing)
                0x000000004024b4e0                raw_input
                0x000000004024b558                raw_bind
                0x000000004024b564                raw_connect
                0x000000004024b570                raw_recv
                0x000000004024b578                raw_sendto
                0x000000004024b63c                raw_send
                0x000000004024b654                raw_remove
                0x000000004024b690                raw_new
 *fill*         0x000000004024b6d1        0x3 
 .text          0x000000004024b6d4     0x10bb ./build/lwip.a(tcp_in.o)
                                       0x1217 (size before relaxing)
                0x000000004024bd08                tcp_input
 *fill*         0x000000004024c78f        0x1 
 .text          0x000000004024c790     0x1756 ./build/axtls.a(tls1.o)
                                       0x1996 (size before relaxing)
                0x000000004024cae4                ssl_ctx_new
                0x000000004024cb38                add_cert
                0x000000004024cbdc                add_cert_auth
                0x000000004024cc38                ssl_get_cert_dn
                0x000000004024cc6c                ssl_get_cert_subject_alt_dnsname
                0x000000004024cca0                ssl_find
                0x000000004024ccc0                ssl_new
                0x000000004024cd30                add_private_key
                0x000000004024cd54                add_packet
                0x000000004024cd8c                generate_master_secret
                0x000000004024cdf8                finished_digest
                0x000000004024d0fc                send_packet
                0x000000004024d368                ssl_write
                0x000000004024d3b4                ssl_renegotiate
                0x000000004024d404                send_change_cipher_spec
                0x000000004024d464                send_finished
                0x000000004024d4d0                send_alert
                0x000000004024d594                basic_read
                0x000000004024d940                process_finished
                0x000000004024d9d4                send_certificate
                0x000000004024da8c                disposable_new
                0x000000004024daa0                disposable_free
                0x000000004024dadc                ssl_free
                0x000000004024db4c                ssl_ctx_free
                0x000000004024dc04                ssl_session_update
                0x000000004024dd34                kill_ssl_session
                0x000000004024dd6c                ssl_read
                0x000000004024ddb0                ssl_get_session_id
                0x000000004024ddb8                ssl_get_session_id_size
                0x000000004024ddc0                ssl_get_cipher_id
                0x000000004024ddc8                ssl_handshake_status
                0x000000004024ddd4                ssl_get_config
                0x000000004024dde8                ssl_verify_cert
                0x000000004024de0c                process_certificate
                0x000000004024dedc                ssl_version
                0x000000004024dee4                ssl_display_error
 *fill*         0x000000004024dee6        0x2 
 .text          0x000000004024dee8      0x472 ./build/axtls.a(tls1_clnt.o)
                                        0x526 (size before relaxing)
                0x000000004024df68                do_client_connect
                0x000000004024e090                ssl_client_new
                0x000000004024e110                do_clnt_handshake
 *fill*         0x000000004024e35a        0x2 
 .text          0x000000004024e35c      0x438 ./build/axtls.a(tls1_svr.o)
                                        0x4ec (size before relaxing)
                0x000000004024e3e0                ssl_server_new
                0x000000004024e404                do_svr_handshake
 .text          0x000000004024e794      0x636 ./build/axtls.a(x509.o)
                                        0x7f5 (size before relaxing)
                0x000000004024e868                x509_free
                0x000000004024e8fc                x509_new
                0x000000004024ec8c                x509_verify
 *fill*         0x000000004024edca        0x2 
 .text          0x000000004024edcc       0x1e ./build/axtls.a(axtls_esp_stubs.o)
                                         0x25 (size before relaxing)
                0x000000004024edcc                time
                0x000000004024edd0                mktime
                0x000000004024edd4                gettimeofday
                0x000000004024eddc                abort
 *fill*         0x000000004024edea        0x2 
 .text          0x000000004024edec      0x8fe ./build/axtls.a(aes.o)
                                        0x932 (size before relaxing)
                0x000000004024edf4                AES_set_key
                0x000000004024ef78                AES_convert_key
                0x000000004024f004                AES_cbc_encrypt
                0x000000004024f324                AES_cbc_decrypt
 *fill*         0x000000004024f6ea        0x2 
 .text          0x000000004024f6ec     0x12f3 ./build/axtls.a(bigint.o)
                                       0x13df (size before relaxing)
                0x000000004024f8ec                bi_clear_cache
                0x000000004024f930                bi_copy
                0x000000004024f958                bi_permanent
                0x000000004024f980                bi_initialize
                0x000000004024f9b0                bi_depermanent
                0x000000004024f9dc                bi_free
                0x000000004024fa28                bi_terminate
                0x000000004024fc4c                int_to_bi
                0x000000004024fc68                bi_clone
                0x000000004024fca4                bi_add
                0x000000004024fd44                bi_subtract
                0x000000004024fdcc                bi_import
                0x000000004024fe44                bi_export
                0x000000004024fec8                bi_free_mod
                0x000000004024ff08                bi_multiply
                0x000000004024ff44                bi_square
                0x00000000402500d8                bi_compare
                0x0000000040250150                bi_divide
                0x0000000040250458                bi_set_mod
                0x0000000040250518                bi_barrett
                0x00000000402505fc                bi_mod_power
                0x0000000040250894                bi_mod_power2
                0x000000004025092c                bi_crt
 *fill*         0x00000000402509df        0x1 
 .text          0x00000000402509e0       0xc5 ./build/axtls.a(crypto_misc.o)
                                         0xd5 (size before relaxing)
                0x00000000402509e8                RNG_initialize
                0x0000000040250a0c                RNG_custom_init
                0x0000000040250a10                RNG_terminate
                0x0000000040250a28                get_random
                0x0000000040250a54                get_random_NZ
 *fill*         0x0000000040250aa5        0x3 
 .text          0x0000000040250aa8      0x1be ./build/axtls.a(hmac.o)
                                        0x24e (size before relaxing)
                0x0000000040250aa8                hmac_md5
                0x0000000040250b88                hmac_sha1
 *fill*         0x0000000040250c66        0x2 
 .text          0x0000000040250c68      0xa05 ./build/axtls.a(md5.o)
                                        0xa0d (size before relaxing)
                0x0000000040251540                MD5_Init
                0x000000004025155c                MD5_Update
                0x0000000040251618                MD5_Final
 *fill*         0x000000004025166d        0x3 
 .text          0x0000000040251670      0x39d ./build/axtls.a(rsa.o)
                                        0x4dd (size before relaxing)
                0x0000000040251670                RSA_free
                0x00000000402516f0                RSA_pub_key_new
                0x000000004025175c                RSA_priv_key_new
                0x00000000402517e4                RSA_private
                0x0000000040251804                RSA_decrypt
                0x000000004025190c                RSA_public
                0x000000004025192c                RSA_encrypt
 *fill*         0x0000000040251a0d        0x3 
 .text          0x0000000040251a10      0x370 ./build/axtls.a(sha1.o)
                                        0x384 (size before relaxing)
                0x0000000040251bf8                SHA1_Init
                0x0000000040251c1c                SHA1_Update
                0x0000000040251c70                SHA1_Final
 .text          0x0000000040251d80     0x2d84 ./build/axtls.a(sha256.o)
                                       0x2d8c (size before relaxing)
                0x00000000402548e4                SHA256_Init
                0x0000000040254914                SHA256_Update
                0x00000000402549c4                SHA256_Final
 .text          0x0000000040254b04       0xdf ./build/axtls.a(sha384.o)
                                         0xfb (size before relaxing)
                0x0000000040254b44                SHA384_Init
                0x0000000040254ba8                SHA384_Update
                0x0000000040254bb8                SHA384_Final
 *fill*         0x0000000040254be3        0x1 
 .text          0x0000000040254be4      0x677 ./build/axtls.a(sha512.o)
                                        0x6b7 (size before relaxing)
                0x0000000040255078                SHA512_Init
                0x00000000402550dc                SHA512_Update
                0x0000000040255158                SHA512_Final
 *fill*         0x000000004025525b        0x1 
 .text          0x000000004025525c      0xa45 ./build/axtls.a(asn1.o)
                                        0xad9 (size before relaxing)
                0x000000004025525c                get_asn1_length
                0x0000000040255438                asn1_next_obj
                0x0000000040255460                asn1_skip_obj
                0x0000000040255498                asn1_get_int
                0x0000000040255508                asn1_get_private_key
                0x000000004025569c                asn1_version
                0x00000000402556c0                asn1_validity
                0x0000000040255724                asn1_name
                0x000000004025593c                asn1_public_key
                0x0000000040255a00                asn1_signature
                0x0000000040255a6c                remove_ca_certs
                0x0000000040255a98                asn1_compare_dn
                0x0000000040255ae0                asn1_find_oid
                0x0000000040255b8c                asn1_find_subjectaltname
                0x0000000040255bc0                asn1_signature_type
 *fill*         0x0000000040255ca1        0x3 
 .text          0x0000000040255ca4       0xf4 ./build/axtls.a(loader.o)
                                        0x128 (size before relaxing)
                0x0000000040255cf8                ssl_obj_memory_load_nocopy
                0x0000000040255d10                ssl_obj_free
                0x0000000040255d38                ssl_obj_memory_load
                0x0000000040255d94                load_key_certs
 .text          0x0000000040255d98       0x2f ./build/core.a(sdk_compat.o)
                0x0000000040255da0                sdk_compat_initialise
 *fill*         0x0000000040255dc7        0x1 
 .literal       0x0000000040255dc8        0x8 /root/ESP8266/esp-open-sdk/xtensa-lx106-elf/lib/gcc/xtensa-lx106-elf/4.8.2/libgcc.a(_addsubsf3.o)
                                          0xc (size before relaxing)
 .literal       0x0000000040255dd0        0x0 /root/ESP8266/esp-open-sdk/xtensa-lx106-elf/lib/gcc/xtensa-lx106-elf/4.8.2/libgcc.a(_mulsf3.o)
                                         0x10 (size before relaxing)
 .literal       0x0000000040255dd0        0x0 /root/ESP8266/esp-open-sdk/xtensa-lx106-elf/lib/gcc/xtensa-lx106-elf/4.8.2/libgcc.a(_divsf3.o)
                                         0x10 (size before relaxing)
 .literal       0x0000000040255dd0        0x0 /root/ESP8266/esp-open-sdk/xtensa-lx106-elf/lib/gcc/xtensa-lx106-elf/4.8.2/libgcc.a(_fixsfsi.o)
                                          0x4 (size before relaxing)
 .literal       0x0000000040255dd0        0x0 /root/ESP8266/esp-open-sdk/xtensa-lx106-elf/lib/gcc/xtensa-lx106-elf/4.8.2/libgcc.a(_fixunssfsi.o)
                                          0x4 (size before relaxing)
 .literal       0x0000000040255dd0        0x8 /root/ESP8266/esp-open-sdk/xtensa-lx106-elf/lib/gcc/xtensa-lx106-elf/4.8.2/libgcc.a(_addsubdf3.o)
                                          0xc (size before relaxing)
 .literal       0x0000000040255dd8        0x4 /root/ESP8266/esp-open-sdk/xtensa-lx106-elf/lib/gcc/xtensa-lx106-elf/4.8.2/libgcc.a(_muldf3.o)
                                         0x10 (size before relaxing)
 .literal       0x0000000040255ddc        0x0 /root/ESP8266/esp-open-sdk/xtensa-lx106-elf/lib/gcc/xtensa-lx106-elf/4.8.2/libgcc.a(_divdf3.o)
                                         0x10 (size before relaxing)
 .literal       0x0000000040255ddc        0x0 /root/ESP8266/esp-open-sdk/xtensa-lx106-elf/lib/gcc/xtensa-lx106-elf/4.8.2/libgcc.a(_fixdfsi.o)
                                          0x4 (size before relaxing)
 .literal       0x0000000040255ddc        0x4 /root/ESP8266/esp-open-sdk/xtensa-lx106-elf/lib/gcc/xtensa-lx106-elf/4.8.2/libgcc.a(_truncdfsf2.o)
                                          0x8 (size before relaxing)
 .literal       0x0000000040255de0        0x0 /root/ESP8266/esp-open-sdk/xtensa-lx106-elf/lib/gcc/xtensa-lx106-elf/4.8.2/libgcc.a(_extendsfdf2.o)
                                          0x8 (size before relaxing)
 .literal       0x0000000040255de0        0x4 /root/ESP8266/esp-open-sdk/xtensa-lx106-elf/lib/gcc/xtensa-lx106-elf/4.8.2/libgcc.a(_popcountsi2.o)
 .literal       0x0000000040255de4        0x0 ../../libc/xtensa-lx106-elf/lib/libc.a(lib_a-atoi.o)
                                          0x8 (size before relaxing)
 .literal       0x0000000040255de4        0x4 ../../libc/xtensa-lx106-elf/lib/libc.a(lib_a-calloc.o)
                                          0x8 (size before relaxing)
 .literal       0x0000000040255de8        0x0 ../../libc/xtensa-lx106-elf/lib/libc.a(lib_a-errno.o)
                                          0x4 (size before relaxing)
 .literal       0x0000000040255de8        0x8 ../../libc/xtensa-lx106-elf/lib/libc.a(lib_a-mstats.o)
                                         0x28 (size before relaxing)
 .literal       0x0000000040255df0        0x4 ../../libc/xtensa-lx106-elf/lib/libc.a(lib_a-nano-callocr.o)
                                          0x8 (size before relaxing)
 .literal       0x0000000040255df4       0x10 ../../libc/xtensa-lx106-elf/lib/libc.a(lib_a-nano-mallinfor.o)
                                         0x14 (size before relaxing)
 .literal       0x0000000040255e04        0xc ../../libc/xtensa-lx106-elf/lib/libc.a(lib_a-nano-mallstatsr.o)
                                         0x24 (size before relaxing)
 .literal       0x0000000040255e10        0x0 ../../libc/xtensa-lx106-elf/lib/libc.a(lib_a-putchar.o)
                                          0xc (size before relaxing)
 .literal       0x0000000040255e10        0xc ../../libc/xtensa-lx106-elf/lib/libc.a(lib_a-putc.o)
                                         0x14 (size before relaxing)
 .literal       0x0000000040255e1c        0x8 ../../libc/xtensa-lx106-elf/lib/libc.a(lib_a-puts.o)
                                         0x20 (size before relaxing)
 .literal       0x0000000040255e24        0x0 ../../libc/xtensa-lx106-elf/lib/libc.a(lib_a-realloc.o)
                                          0x8 (size before relaxing)
 .literal       0x0000000040255e24       0x10 ../../libc/xtensa-lx106-elf/lib/libc.a(lib_a-strcmp.o)
                                         0x20 (size before relaxing)
 .literal       0x0000000040255e34        0x0 ../../libc/xtensa-lx106-elf/lib/libc.a(lib_a-strcpy.o)
                                          0xc (size before relaxing)
 .literal       0x0000000040255e34        0x0 ../../libc/xtensa-lx106-elf/lib/libc.a(lib_a-strlen.o)
                                          0xc (size before relaxing)
 .literal       0x0000000040255e34        0x0 ../../libc/xtensa-lx106-elf/lib/libc.a(lib_a-strncpy.o)
                                          0xc (size before relaxing)
 .literal       0x0000000040255e34        0x0 ../../libc/xtensa-lx106-elf/lib/libc.a(lib_a-strrchr.o)
                                          0x8 (size before relaxing)
 .literal       0x0000000040255e34        0x8 ../../libc/xtensa-lx106-elf/lib/libc.a(lib_a-strtol.o)
                                         0x18 (size before relaxing)
 .literal       0x0000000040255e3c        0x0 ../../libc/xtensa-lx106-elf/lib/libc.a(lib_a-syssbrk.o)
                                          0x8 (size before relaxing)
 .literal       0x0000000040255e3c        0x0 ../../libc/xtensa-lx106-elf/lib/libc.a(lib_a-wbuf.o)
                                         0x1c (size before relaxing)
 .literal       0x0000000040255e3c        0x4 ../../libc/xtensa-lx106-elf/lib/libc.a(lib_a-wsetup.o)
                                         0x10 (size before relaxing)
 .literal       0x0000000040255e40        0xc ../../libc/xtensa-lx106-elf/lib/libc.a(lib_a-fflush.o)
                                         0x2c (size before relaxing)
 .literal       0x0000000040255e4c        0x4 ../../libc/xtensa-lx106-elf/lib/libc.a(lib_a-fvwrite.o)
                                         0x40 (size before relaxing)
 .literal       0x0000000040255e50       0x10 ../../libc/xtensa-lx106-elf/lib/libc.a(lib_a-makebuf.o)
                                         0x20 (size before relaxing)
 .literal       0x0000000040255e60        0x0 ../../libc/xtensa-lx106-elf/lib/libc.a(lib_a-nano-reallocr.o)
                                         0x18 (size before relaxing)
 .literal       0x0000000040255e60        0x8 ../../libc/xtensa-lx106-elf/lib/libc.a(lib_a-nano-vfprintf_i.o)
                                         0x14 (size before relaxing)
 .literal       0x0000000040255e68        0x4 ../../libc/xtensa-lx106-elf/lib/libc.a(lib_a-stdio.o)
                                         0x24 (size before relaxing)
 .literal       0x0000000040255e6c        0x0 ../../libc/xtensa-lx106-elf/lib/libc.a(isatty.o)
                                          0x8 (size before relaxing)
 .literal       0x0000000040255e6c        0xc ../../libc/xtensa-lx106-elf/lib/libc.a(lib_a-fclose.o)
                                         0x30 (size before relaxing)
 .literal       0x0000000040255e78       0x1c ../../libc/xtensa-lx106-elf/lib/libc.a(lib_a-locale.o)
                                         0x30 (size before relaxing)
 .literal       0x0000000040255e94        0x4 ../../libc/xtensa-lx106-elf/lib/libc.a(lib_a-wcrtomb.o)
                                         0x10 (size before relaxing)
 .literal       0x0000000040255e98        0x0 ../../libc/xtensa-lx106-elf/lib/libc.a(lib_a-wctomb_r.o)
                                          0x8 (size before relaxing)
 .text          0x0000000040255e98      0x1ff /root/ESP8266/esp-open-sdk/xtensa-lx106-elf/lib/gcc/xtensa-lx106-elf/4.8.2/libgcc.a(_addsubsf3.o)
                0x0000000040255eb4                __addsf3
                0x0000000040255f9c                __subsf3
 *fill*         0x0000000040256097        0x1 
 .text          0x0000000040256098      0x15d /root/ESP8266/esp-open-sdk/xtensa-lx106-elf/lib/gcc/xtensa-lx106-elf/4.8.2/libgcc.a(_mulsf3.o)
                0x0000000040256110                __mulsf3
 *fill*         0x00000000402561f5        0x3 
 .text          0x00000000402561f8      0x135 /root/ESP8266/esp-open-sdk/xtensa-lx106-elf/lib/gcc/xtensa-lx106-elf/4.8.2/libgcc.a(_divsf3.o)
                0x0000000040256274                __divsf3
 *fill*         0x000000004025632d        0x3 
 .text          0x0000000040256330       0x40 /root/ESP8266/esp-open-sdk/xtensa-lx106-elf/lib/gcc/xtensa-lx106-elf/4.8.2/libgcc.a(_fixsfsi.o)
                0x0000000040256330                __fixsfsi
 .text          0x0000000040256370       0x51 /root/ESP8266/esp-open-sdk/xtensa-lx106-elf/lib/gcc/xtensa-lx106-elf/4.8.2/libgcc.a(_fixunssfsi.o)
                0x0000000040256370                __fixunssfsi
 *fill*         0x00000000402563c1        0x3 
 .text          0x00000000402563c4      0x2f6 /root/ESP8266/esp-open-sdk/xtensa-lx106-elf/lib/gcc/xtensa-lx106-elf/4.8.2/libgcc.a(_addsubdf3.o)
                0x00000000402563e4                __adddf3
                0x0000000040256534                __subdf3
 *fill*         0x00000000402566ba        0x2 
 .text          0x00000000402566bc      0x29b /root/ESP8266/esp-open-sdk/xtensa-lx106-elf/lib/gcc/xtensa-lx106-elf/4.8.2/libgcc.a(_muldf3.o)
                0x000000004025679c                __muldf3
 *fill*         0x0000000040256957        0x1 
 .text          0x0000000040256958      0x20b /root/ESP8266/esp-open-sdk/xtensa-lx106-elf/lib/gcc/xtensa-lx106-elf/4.8.2/libgcc.a(_divdf3.o)
                0x0000000040256a40                __divdf3
 *fill*         0x0000000040256b63        0x1 
 .text          0x0000000040256b64       0x48 /root/ESP8266/esp-open-sdk/xtensa-lx106-elf/lib/gcc/xtensa-lx106-elf/4.8.2/libgcc.a(_fixdfsi.o)
                0x0000000040256b64                __fixdfsi
 .text          0x0000000040256bac       0xa0 /root/ESP8266/esp-open-sdk/xtensa-lx106-elf/lib/gcc/xtensa-lx106-elf/4.8.2/libgcc.a(_truncdfsf2.o)
                0x0000000040256bac                __truncdfsf2
 .text          0x0000000040256c4c       0x5e /root/ESP8266/esp-open-sdk/xtensa-lx106-elf/lib/gcc/xtensa-lx106-elf/4.8.2/libgcc.a(_extendsfdf2.o)
                0x0000000040256c4c                __extendsfdf2
 *fill*         0x0000000040256caa        0x2 
 .text          0x0000000040256cac       0x21 /root/ESP8266/esp-open-sdk/xtensa-lx106-elf/lib/gcc/xtensa-lx106-elf/4.8.2/libgcc.a(_popcountsi2.o)
                0x0000000040256cac                __popcountsi2
 *fill*         0x0000000040256ccd        0x3 
 .text          0x0000000040256cd0       0x27 ../../libc/xtensa-lx106-elf/lib/libc.a(lib_a-atoi.o)
                                         0x2f (size before relaxing)
                0x0000000040256cd0                atoi
                0x0000000040256ce4                _atoi_r
 *fill*         0x0000000040256cf7        0x1 
 .text          0x0000000040256cf8       0x1d ../../libc/xtensa-lx106-elf/lib/libc.a(lib_a-calloc.o)
                0x0000000040256cf8                calloc
 *fill*         0x0000000040256d15        0x3 
 .text          0x0000000040256d18        0x7 ../../libc/xtensa-lx106-elf/lib/libc.a(lib_a-errno.o)
                0x0000000040256d18                __errno
 *fill*         0x0000000040256d1f        0x1 
 .text          0x0000000040256d20       0x97 ../../libc/xtensa-lx106-elf/lib/libc.a(lib_a-mstats.o)
                0x0000000040256d20                mallinfo
                0x0000000040256d40                malloc_stats
                0x0000000040256d58                mallopt
                0x0000000040256d78                _mstats_r
                0x0000000040256da0                mstats
 *fill*         0x0000000040256db7        0x1 
 .text          0x0000000040256db8       0x2f ../../libc/xtensa-lx106-elf/lib/libc.a(lib_a-nano-callocr.o)
                0x0000000040256db8                _calloc_r
 *fill*         0x0000000040256de7        0x1 
 .text          0x0000000040256de8       0x66 ../../libc/xtensa-lx106-elf/lib/libc.a(lib_a-nano-mallinfor.o)
                0x0000000040256de8                _mallinfo_r
 *fill*         0x0000000040256e4e        0x2 
 .text          0x0000000040256e50       0x4f ../../libc/xtensa-lx106-elf/lib/libc.a(lib_a-nano-mallstatsr.o)
                                         0x53 (size before relaxing)
                0x0000000040256e50                _malloc_stats_r
 *fill*         0x0000000040256e9f        0x1 
 .text          0x0000000040256ea0       0x31 ../../libc/xtensa-lx106-elf/lib/libc.a(lib_a-putchar.o)
                                         0x35 (size before relaxing)
                0x0000000040256ea0                _putchar_r
                0x0000000040256eb4                putchar
 *fill*         0x0000000040256ed1        0x3 
 .text          0x0000000040256ed4       0xb7 ../../libc/xtensa-lx106-elf/lib/libc.a(lib_a-putc.o)
                0x0000000040256ed4                _putc_r
                0x0000000040256f70                putc
 *fill*         0x0000000040256f8b        0x1 
 .text          0x0000000040256f8c       0xaf ../../libc/xtensa-lx106-elf/lib/libc.a(lib_a-puts.o)
                                         0xb3 (size before relaxing)
                0x0000000040256f8c                _puts_r
                0x0000000040257024                puts
 *fill*         0x000000004025703b        0x1 
 .text          0x000000004025703c       0x1d ../../libc/xtensa-lx106-elf/lib/libc.a(lib_a-realloc.o)
                0x000000004025703c                realloc
 *fill*         0x0000000040257059        0x3 
 .text          0x000000004025705c       0xff ../../libc/xtensa-lx106-elf/lib/libc.a(lib_a-strcmp.o)
                0x000000004025705c                strcmp
 *fill*         0x000000004025715b        0x1 
 .text          0x000000004025715c       0x83 ../../libc/xtensa-lx106-elf/lib/libc.a(lib_a-strcpy.o)
                0x000000004025715c                strcpy
 *fill*         0x00000000402571df        0x1 
 .text          0x00000000402571e0       0x5b ../../libc/xtensa-lx106-elf/lib/libc.a(lib_a-strlen.o)
                0x00000000402571e0                strlen
 *fill*         0x000000004025723b        0x1 
 .text          0x000000004025723c       0xfa ../../libc/xtensa-lx106-elf/lib/libc.a(lib_a-strncpy.o)
                0x0000000040257274                strncpy
 *fill*         0x0000000040257336        0x2 
 .text          0x0000000040257338       0x3b ../../libc/xtensa-lx106-elf/lib/libc.a(lib_a-strrchr.o)
                0x0000000040257338                strrchr
 *fill*         0x0000000040257373        0x1 
 .text          0x0000000040257374      0x15f ../../libc/xtensa-lx106-elf/lib/libc.a(lib_a-strtol.o)
                0x0000000040257374                _strtol_r
                0x00000000402574b4                strtol
 *fill*         0x00000000402574d3        0x1 
 .text          0x00000000402574d4       0x19 ../../libc/xtensa-lx106-elf/lib/libc.a(lib_a-syssbrk.o)
                0x00000000402574d4                sbrk
 *fill*         0x00000000402574ed        0x3 
 .text          0x00000000402574f0       0xd7 ../../libc/xtensa-lx106-elf/lib/libc.a(lib_a-wbuf.o)
                                         0xdf (size before relaxing)
                0x00000000402574f0                __swbuf_r
                0x00000000402575ac                __swbuf
 *fill*         0x00000000402575c7        0x1 
 .text          0x00000000402575c8       0xc9 ../../libc/xtensa-lx106-elf/lib/libc.a(lib_a-wsetup.o)
                0x00000000402575c8                __swsetup_r
 *fill*         0x0000000040257691        0x3 
 .text          0x0000000040257694      0x1eb ../../libc/xtensa-lx106-elf/lib/libc.a(lib_a-fflush.o)
                                        0x1ef (size before relaxing)
                0x0000000040257694                __sflush_r
                0x00000000402577f4                _fflush_r
                0x0000000040257858                fflush
 *fill*         0x000000004025787f        0x1 
 .text          0x0000000040257880      0x324 ../../libc/xtensa-lx106-elf/lib/libc.a(lib_a-fvwrite.o)
                                        0x334 (size before relaxing)
                0x0000000040257880                __sfvwrite_r
 .text          0x0000000040257ba4      0x104 ../../libc/xtensa-lx106-elf/lib/libc.a(lib_a-makebuf.o)
                                        0x108 (size before relaxing)
                0x0000000040257ba4                __smakebuf_r
 .text          0x0000000040257ca8       0x73 ../../libc/xtensa-lx106-elf/lib/libc.a(lib_a-nano-reallocr.o)
                0x0000000040257ca8                _realloc_r
 *fill*         0x0000000040257d1b        0x1 
 .text          0x0000000040257d1c      0x4bb ../../libc/xtensa-lx106-elf/lib/libc.a(lib_a-nano-vfprintf_i.o)
                                        0x4bf (size before relaxing)
                0x0000000040257d1c                _printf_common
                0x0000000040257e24                _printf_i
 *fill*         0x00000000402581d7        0x1 
 .text          0x00000000402581d8       0xe1 ../../libc/xtensa-lx106-elf/lib/libc.a(lib_a-stdio.o)
                                         0xed (size before relaxing)
                0x00000000402581d8                __sread
                0x0000000040258210                __seofread
                0x0000000040258214                __swrite
                0x0000000040258268                __sseek
                0x00000000402582a4                __sclose
 *fill*         0x00000000402582b9        0x3 
 .text          0x00000000402582bc       0x30 ../../libc/xtensa-lx106-elf/lib/libc.a(isatty.o)
                0x00000000402582bc                _isatty_r
 .text          0x00000000402582ec       0xeb ../../libc/xtensa-lx106-elf/lib/libc.a(lib_a-fclose.o)
                                         0xef (size before relaxing)
                0x00000000402582ec                _fclose_r
                0x00000000402583c0                fclose
 *fill*         0x00000000402583d7        0x1 
 .text          0x00000000402583d8       0x8d ../../libc/xtensa-lx106-elf/lib/libc.a(lib_a-locale.o)
                                         0x95 (size before relaxing)
                0x00000000402583d8                _setlocale_r
                0x0000000040258420                __locale_charset
                0x0000000040258428                __locale_mb_cur_max
                0x0000000040258430                __locale_msgcharset
                0x0000000040258438                __locale_cjk_lang
                0x000000004025843c                _localeconv_r
                0x0000000040258444                setlocale
                0x0000000040258460                localeconv
 *fill*         0x0000000040258465        0x3 
 .text          0x0000000040258468       0x7d ../../libc/xtensa-lx106-elf/lib/libc.a(lib_a-wcrtomb.o)
                0x0000000040258468                _wcrtomb_r
                0x00000000402584c8                wcrtomb
 *fill*         0x00000000402584e5        0x3 
 .text          0x00000000402584e8       0x5d ../../libc/xtensa-lx106-elf/lib/libc.a(lib_a-wctomb_r.o)
                0x00000000402584e8                __ascii_wctomb
                0x0000000040258508                _wctomb_r
 *fill*         0x0000000040258545        0x3 
 .text          0x0000000040258548       0xa4 ./build/core.a(newlib_syscalls.o)
                                         0xac (size before relaxing)
                0x0000000040258548                _write_r
                0x0000000040258594                _read_r
                0x00000000402585e4                _lseek_r
                0x00000000402585e4                _fstat_r
                0x00000000402585e4                _open_r
                0x00000000402585e4                _close_r
 .text          0x00000000402585ec        0x0 ./build/core.a(exception_vectors.o)
 .literal       0x00000000402585ec        0x0 ./build/program.a(http_get_ssl.o)
 *fill*         0x00000000402585ec        0x0 
 .literal       0x00000000402585ec        0x0 ./build/freertos.a(queue.o)
 *fill*         0x00000000402585ec        0x0 
 .literal       0x00000000402585ec        0x0 ./build/freertos.a(tasks.o)
 .literal       0x00000000402585ec        0x0 ./build/freertos.a(timers.o)
 .literal       0x00000000402585ec        0x0 ./build/freertos.a(port.o)
 *fill*         0x00000000402585ec        0x0 
 .literal       0x00000000402585ec        0x0 ./build/freertos.a(list.o)
 .text          0x00000000402585ec       0x1a ./build/freertos.a(list.o)
                0x00000000402585ec                vListInitialise
                0x0000000040258600                vListInitialiseItem
 *fill*         0x0000000040258606        0x2 
 .literal       0x0000000040258608        0x0 ./build/lwip.a(esp_interface.o)
 *fill*         0x0000000040258608        0x0 
 .literal       0x0000000040258608        0x0 ./build/lwip.a(netdb.o)
 *fill*         0x0000000040258608        0x0 
 .literal       0x0000000040258608        0x0 ./build/lwip.a(sockets.o)
 *fill*         0x0000000040258608        0x0 
 .literal       0x0000000040258608        0x0 ./build/lwip.a(tcpip.o)
 *fill*         0x0000000040258608        0x0 
 .literal       0x0000000040258608        0x0 ./build/lwip.a(dhcp.o)
 .literal       0x0000000040258608        0x0 ./build/lwip.a(dns.o)
 *fill*         0x0000000040258608        0x0 
 .literal       0x0000000040258608        0x0 ./build/lwip.a(init.o)
 .text          0x0000000040258608        0x0 ./build/lwip.a(memp.o)
 *fill*         0x0000000040258608        0x0 
 .literal       0x0000000040258608        0x0 ./build/lwip.a(netif.o)
 .literal       0x0000000040258608        0x0 ./build/lwip.a(pbuf.o)
 *fill*         0x0000000040258608        0x0 
 .literal       0x0000000040258608        0x0 ./build/lwip.a(stats.o)
 .text          0x0000000040258608        0x2 ./build/lwip.a(stats.o)
                0x0000000040258608                stats_init
 *fill*         0x000000004025860a        0x2 
 .literal       0x000000004025860c        0x0 ./build/lwip.a(tcp.o)
 *fill*         0x000000004025860c        0x0 
 .literal       0x000000004025860c        0x0 ./build/lwip.a(tcp_out.o)
 *fill*         0x000000004025860c        0x0 
 .literal       0x000000004025860c        0x0 ./build/lwip.a(timers.o)
 *fill*         0x000000004025860c        0x0 
 .literal       0x000000004025860c        0x0 ./build/lwip.a(udp.o)
 *fill*         0x000000004025860c        0x0 
 .literal       0x000000004025860c        0x0 ./build/lwip.a(icmp.o)
 *fill*         0x000000004025860c        0x0 
 .literal       0x000000004025860c        0x0 ./build/lwip.a(inet_chksum.o)
 *fill*         0x000000004025860c        0x0 
 .literal       0x000000004025860c        0x0 ./build/lwip.a(ip_addr.o)
 .literal       0x000000004025860c        0x0 ./build/lwip.a(ip.o)
 *fill*         0x000000004025860c        0x0 
 .literal       0x000000004025860c        0x0 ./build/lwip.a(ip_frag.o)
 *fill*         0x000000004025860c        0x0 
 .literal       0x000000004025860c        0x0 ./build/lwip.a(etharp.o)
 *fill*         0x000000004025860c        0x0 
 .literal       0x000000004025860c        0x0 ./build/lwip.a(sys_arch.o)
 *fill*         0x000000004025860c        0x0 
 .literal       0x000000004025860c        0x0 ./build/lwip.a(api_lib.o)
 *fill*         0x000000004025860c        0x0 
 .literal       0x000000004025860c        0x0 ./build/lwip.a(api_msg.o)
 *fill*         0x000000004025860c        0x0 
 .literal       0x000000004025860c        0x0 ./build/lwip.a(netbuf.o)
 *fill*         0x000000004025860c        0x0 
 .literal       0x000000004025860c        0x0 ./build/lwip.a(raw.o)
 *fill*         0x000000004025860c        0x0 
 .literal       0x000000004025860c        0x0 ./build/lwip.a(tcp_in.o)
 *fill*         0x000000004025860c        0x0 
 .literal       0x000000004025860c        0x0 ./build/axtls.a(tls1.o)
 *fill*         0x000000004025860c        0x0 
 .literal       0x000000004025860c        0x0 ./build/axtls.a(tls1_clnt.o)
 *fill*         0x000000004025860c        0x0 
 .literal       0x000000004025860c        0x0 ./build/axtls.a(tls1_svr.o)
 .literal       0x000000004025860c        0x0 ./build/axtls.a(x509.o)
 *fill*         0x000000004025860c        0x0 
 .literal       0x000000004025860c        0x0 ./build/axtls.a(axtls_esp_stubs.o)
 *fill*         0x000000004025860c        0x0 
 .literal       0x000000004025860c        0x0 ./build/axtls.a(aes.o)
 *fill*         0x000000004025860c        0x0 
 .literal       0x000000004025860c        0x0 ./build/axtls.a(bigint.o)
 *fill*         0x000000004025860c        0x0 
 .literal       0x000000004025860c        0x0 ./build/axtls.a(crypto_misc.o)
 *fill*         0x000000004025860c        0x0 
 .literal       0x000000004025860c        0x0 ./build/axtls.a(hmac.o)
 *fill*         0x000000004025860c        0x0 
 .literal       0x000000004025860c        0x0 ./build/axtls.a(md5.o)
 *fill*         0x000000004025860c        0x0 
 .literal       0x000000004025860c        0x0 ./build/axtls.a(rc4.o)
 .text          0x000000004025860c       0xb5 ./build/axtls.a(rc4.o)
                0x000000004025860c                RC4_setup
                0x0000000040258658                RC4_crypt
 *fill*         0x00000000402586c1        0x3 
 .literal       0x00000000402586c4        0x0 ./build/axtls.a(rsa.o)
 *fill*         0x00000000402586c4        0x0 
 .literal       0x00000000402586c4        0x0 ./build/axtls.a(sha1.o)
 .literal       0x00000000402586c4        0x0 ./build/axtls.a(sha256.o)
 .literal       0x00000000402586c4        0x0 ./build/axtls.a(sha384.o)
 *fill*         0x00000000402586c4        0x0 
 .literal       0x00000000402586c4        0x0 ./build/axtls.a(sha512.o)
 *fill*         0x00000000402586c4        0x0 
 .literal       0x00000000402586c4        0x0 ./build/axtls.a(asn1.o)
 *fill*         0x00000000402586c4        0x0 
 .literal       0x00000000402586c4        0x0 ./build/axtls.a(loader.o)
 .literal       0x00000000402586c4        0x0 ./build/core.a(sdk_compat.o)
 *fill*         0x00000000402586c4        0x0 
 .text          0x00000000402586c4       0x20 /root/ESP8266/esp-open-sdk/xtensa-lx106-elf/xtensa-lx106-elf/sysroot/usr/lib/libhal.a(clock.o)
                0x00000000402586c4                xthal_get_ccount
                0x00000000402586cc                xthal_set_ccompare
                0x00000000402586d8                xthal_get_ccompare
 *fill*         0x00000000402586e4        0x0 
 *fill*         0x00000000402586e4        0x0 
 *fill*         0x00000000402586e4        0x0 
 *fill*         0x00000000402586e4        0x0 
 .text          0x00000000402586e4       0x44 /root/ESP8266/esp-open-sdk/xtensa-lx106-elf/lib/gcc/xtensa-lx106-elf/4.8.2/libgcc.a(_floatsisf.o)
                0x00000000402586e4                __floatunsisf
                0x00000000402586ec                __floatsisf
 *fill*         0x0000000040258728        0x0 
 *fill*         0x0000000040258728        0x0 
 *fill*         0x0000000040258728        0x0 
 .text          0x0000000040258728       0x36 /root/ESP8266/esp-open-sdk/xtensa-lx106-elf/lib/gcc/xtensa-lx106-elf/4.8.2/libgcc.a(_floatsidf.o)
                0x0000000040258728                __floatunsidf
                0x0000000040258730                __floatsidf
 *fill*         0x000000004025875e        0x0 
 *fill*         0x000000004025875e        0x0 
 .text          0x000000004025875e        0x0 /root/ESP8266/esp-open-sdk/xtensa-lx106-elf/lib/gcc/xtensa-lx106-elf/4.8.2/libgcc.a(_popcount_tab.o)
 *fill*         0x000000004025875e        0x0 
 *fill*         0x000000004025875e        0x0 
 *fill*         0x000000004025875e        0x0 
 .text          0x000000004025875e        0x0 ../../libc/xtensa-lx106-elf/lib/libc.a(lib_a-impure.o)
 *fill*         0x000000004025875e        0x0 
 *fill*         0x000000004025875e        0x0 
 *fill*         0x000000004025875e        0x0 
 *fill*         0x000000004025875e        0x2 
 .text          0x0000000040258760        0x4 ../../libc/xtensa-lx106-elf/lib/libc.a(lib_a-nano-malloptr.o)
                0x0000000040258760                _mallopt_r
 *fill*         0x0000000040258764        0x0 
 *fill*         0x0000000040258764        0x0 
 *fill*         0x0000000040258764        0x0 
 *fill*         0x0000000040258764        0x0 
 *fill*         0x0000000040258764        0x0 
 *fill*         0x0000000040258764        0x0 
 *fill*         0x0000000040258764        0x0 
 *fill*         0x0000000040258764        0x0 
 .text          0x0000000040258764       0x33 ../../libc/xtensa-lx106-elf/lib/libc.a(lib_a-strncmp.o)
                0x0000000040258764                strncmp
 *fill*         0x0000000040258797        0x0 
 *fill*         0x0000000040258797        0x0 
 *fill*         0x0000000040258797        0x0 
 *fill*         0x0000000040258797        0x0 
 *fill*         0x0000000040258797        0x0 
 *fill*         0x0000000040258797        0x0 
 .text          0x0000000040258797        0x0 ../../libc/xtensa-lx106-elf/lib/libc.a(lib_a-ctype_.o)
 *fill*         0x0000000040258797        0x0 
 *fill*         0x0000000040258797        0x1 
 .text          0x0000000040258798       0xba ../../libc/xtensa-lx106-elf/lib/libc.a(lib_a-fwalk.o)
                0x0000000040258798                _fwalk
                0x00000000402587f0                _fwalk_reent
 *fill*         0x0000000040258852        0x2 
 .text          0x0000000040258854       0x17 ../../libc/xtensa-lx106-elf/lib/libc.a(lib_a-memchr.o)
                0x0000000040258854                memchr
 *fill*         0x000000004025886b        0x1 
 .text          0x000000004025886c       0x3b ../../libc/xtensa-lx106-elf/lib/libc.a(lib_a-memmove.o)
                0x000000004025886c                memmove
 *fill*         0x00000000402588a7        0x0 
 *fill*         0x00000000402588a7        0x0 
 *fill*         0x00000000402588a7        0x0 
 *fill*         0x00000000402588a7        0x1 
 .text          0x00000000402588a8       0x18 ../../libc/xtensa-lx106-elf/lib/libc.a(lib_a-strchr.o)
                0x00000000402588a8                strchr
 *fill*         0x00000000402588c0        0x0 
 *fill*         0x00000000402588c0        0x0 
 .text          0x00000000402588c0       0x16 ../../libc/xtensa-lx106-elf/lib/libc.a(lib_a-nano-msizer.o)
                0x00000000402588c0                _malloc_usable_size_r
 *fill*         0x00000000402588d6        0x0 
 *fill*         0x00000000402588d6        0x0 
 *fill*         0x00000000402588d6        0x2 
 .literal       0x00000000402588d8        0x0 ./build/core.a(newlib_syscalls.o)
 *(.irom.* .irom.*.* .irom0.*)
 .irom0.text    0x00000000402588d8      0x65a ./build/sdklib/libmain.a(app_main.o)
                                        0x7c2 (size before relaxing)
                0x0000000040258ba4                sdk_uart_rx_one_char
                0x0000000040258bcc                sdk_wdt_init
                0x0000000040258c6c                sdk_user_init_task
 *fill*         0x0000000040258f32        0x2 
 .irom0.text    0x0000000040258f34      0x363 ./build/sdklib/libmain.a(ets_timer.o)
                                        0x3f3 (size before relaxing)
                0x0000000040258fa0                sdk_ets_timer_setfn
                0x000000004025901c                sdk_ets_timer_arm_ms_us
                0x00000000402590a8                sdk_ets_timer_arm_us
                0x00000000402590bc                sdk_ets_timer_arm
                0x00000000402590d0                sdk_ets_timer_disarm
                0x000000004025911c                sdk_ets_timer_done
                0x0000000040259148                sdk_ets_timer_handler_isr
                0x000000004025920c                sdk_ets_timer_init
 *fill*         0x0000000040259297        0x1 
 .irom0.text    0x0000000040259298       0xcc ./build/sdklib/libmain.a(misc.o)
                                         0xe4 (size before relaxing)
                0x000000004025929c                sdk_os_delay_us
                0x000000004025929c                sdk_ets_delay_us
                0x00000000402592cc                sdk_os_update_cpu_frequency
                0x00000000402592cc                sdk_ets_update_cpu_frequency
                0x00000000402592d8                sdk_os_install_putc1
                0x00000000402592e0                sdk_os_putc
                0x00000000402592f8                sdk_gpio_output_set
                0x000000004025931c                sdk_rtc_get_reset_reason
 .irom0.text    0x0000000040259364       0x4a ./build/sdklib/libmain.a(uart.o)
                                         0x4e (size before relaxing)
                0x0000000040259364                sdk_uart_buff_switch
                0x0000000040259374                sdk_uart_div_modify
                0x00000000402593ac                sdk_Uart_Init
 *fill*         0x00000000402593ae        0x2 
 .irom0.text    0x00000000402593b0     0x2025 ./build/sdklib/libmain.a(user_interface.o)
                                       0x2601 (size before relaxing)
                0x0000000040259550                sdk_system_pp_recycle_rx_pkt
                0x0000000040259564                sdk_system_adc_read
                0x0000000040259584                sdk_system_restart
                0x00000000402595d4                sdk_system_restore
                0x000000004025961c                sdk_system_get_boot_version
                0x0000000040259654                sdk_system_get_test_result
                0x0000000040259678                sdk_system_get_userbin_addr
                0x00000000402596fc                sdk_system_get_boot_mode
                0x0000000040259728                sdk_system_restart_enhance
                0x0000000040259800                sdk_system_upgrade_userbin_set
                0x0000000040259848                sdk_system_upgrade_userbin_check
                0x0000000040259884                sdk_system_upgrade_flag_set
                0x0000000040259898                sdk_system_upgrade_flag_check
                0x00000000402598ac                sdk_system_upgrade_reboot
                0x0000000040259b30                sdk_system_deep_sleep
                0x0000000040259b70                sdk_system_update_cpu_freq
                0x0000000040259bcc                sdk_system_get_cpu_freq
                0x0000000040259be4                sdk_system_overclock
                0x0000000040259c10                sdk_system_restoreclock
                0x0000000040259c48                sdk_system_get_time
                0x0000000040259c5c                sdk_system_relative_time
                0x0000000040259c74                sdk_system_station_got_ip_set
                0x0000000040259d30                sdk_system_print_meminfo
                0x0000000040259d9c                sdk_system_get_free_heap_size
                0x0000000040259db0                sdk_system_get_chip_id
                0x0000000040259dd4                sdk_system_rtc_clock_cali_proc
                0x0000000040259de8                sdk_system_get_rtc_time
                0x0000000040259df4                sdk_system_get_rst_info
                0x0000000040259e20                sdk_wifi_station_dhcpc_start
                0x0000000040259e78                sdk_wifi_station_dhcpc_stop
                0x0000000040259eb8                sdk_wifi_station_dhcpc_status
                0x0000000040259ef8                sdk_wifi_get_opmode
                0x0000000040259f0c                sdk_wifi_get_opmode_default
                0x0000000040259f94                sdk_wifi_set_opmode_local
                0x0000000040259fec                sdk_wifi_set_opmode
                0x000000004025a000                sdk_wifi_set_opmode_current
                0x000000004025a014                sdk_system_get_checksum
                0x000000004025a0cc                sdk_wifi_param_save_protect
                0x000000004025a260                sdk_wifi_station_get_config
                0x000000004025a274                sdk_wifi_station_get_config_default
                0x000000004025a294                sdk_wifi_station_get_ap_info
                0x000000004025a350                sdk_wifi_station_ap_number_set
                0x000000004025a5b8                sdk_wifi_station_set_config
                0x000000004025a5cc                sdk_wifi_station_set_config_current
                0x000000004025a5e0                sdk_wifi_station_get_current_ap_id
                0x000000004025a5f4                sdk_wifi_station_ap_check
                0x000000004025a62c                sdk_wifi_station_ap_change
                0x000000004025a710                sdk_wifi_station_scan
                0x000000004025a754                sdk_wifi_station_get_auto_connect
                0x000000004025a768                sdk_wifi_station_set_auto_connect
                0x000000004025a7a0                sdk_wifi_station_connect
                0x000000004025a828                sdk_wifi_station_disconnect
                0x000000004025a888                sdk_wifi_station_get_connect_status
                0x000000004025a8b4                sdk_wifi_softap_cacl_mac
                0x000000004025a928                sdk_wifi_softap_set_default_ssid
                0x000000004025aaac                sdk_wifi_softap_get_config
                0x000000004025aac0                sdk_wifi_softap_get_config_default
                0x000000004025acf8                sdk_wifi_softap_set_config
                0x000000004025ad0c                sdk_wifi_softap_set_config_current
                0x000000004025ad20                sdk_wifi_softap_set_station_info
                0x000000004025ad84                sdk_wifi_softap_get_station_info
                0x000000004025ae14                sdk_wifi_softap_free_station_info
                0x000000004025ae4c                sdk_wifi_softap_deauth
                0x000000004025af00                sdk_wifi_get_phy_mode
                0x000000004025af08                sdk_wifi_set_phy_mode
                0x000000004025af90                sdk_wifi_set_sleep_type
                0x000000004025afb0                sdk_wifi_get_sleep_type
                0x000000004025afb8                sdk_wifi_get_channel
                0x000000004025afd0                sdk_wifi_set_channel
                0x000000004025b000                sdk_wifi_promiscuous_set_mac
                0x000000004025b04c                sdk_wifi_promiscuous_enable
                0x000000004025b0f8                sdk_wifi_set_promiscuous_rx_cb
                0x000000004025b100                sdk_wifi_get_ip_info
                0x000000004025b174                sdk_wifi_set_ip_info
                0x000000004025b21c                sdk_wifi_get_macaddr
                0x000000004025b278                sdk_wifi_set_macaddr
                0x000000004025b328                sdk_wifi_status_led_install
                0x000000004025b35c                sdk_system_uart_swap
                0x000000004025b3d0                sdk_system_get_sdk_version
 *fill*         0x000000004025b3d5        0x3 
 .irom0.text    0x000000004025b3d8      0x171 ./build/sdklib/libmain.a(timers.o)
                                        0x1a9 (size before relaxing)
                0x000000004025b3e0                sdk_os_timer_setfn
                0x000000004025b47c                sdk_os_timer_arm
                0x000000004025b520                sdk_os_timer_disarm
 *fill*         0x000000004025b549        0x3 
 .irom0.text    0x000000004025b54c      0x30f ./build/sdklib/libnet80211.a(ieee80211.o)
                                        0x3af (size before relaxing)
                0x000000004025b5e4                sdk_ieee80211_ifattach
                0x000000004025b634                sdk_ieee80211_mhz2ieee
                0x000000004025b68c                sdk_ieee80211_chan2ieee
                0x000000004025b6ac                sdk_ieee80211_ieee2mhz
                0x000000004025b6e4                sdk_ieee80211_find_channel
                0x000000004025b70c                sdk_ieee80211_find_channel_byieee
                0x000000004025b754                sdk_wifi_mode_set
 *fill*         0x000000004025b85b        0x1 
 .irom0.text    0x000000004025b85c       0xb6 ./build/sdklib/libnet80211.a(ieee80211_crypto.o)
                                         0xbe (size before relaxing)
                0x000000004025b85c                sdk_ieee80211_crypto_attach
                0x000000004025b860                sdk_ieee80211_crypto_available
                0x000000004025b864                sdk_ieee80211_crypto_setkey
                0x000000004025b868                sdk_ieee80211_crypto_encap
                0x000000004025b8b8                sdk_ieee80211_crypto_decap
 *fill*         0x000000004025b912        0x2 
 .irom0.text    0x000000004025b914      0xf65 ./build/sdklib/libnet80211.a(ieee80211_hostap.o)
                                       0x1259 (size before relaxing)
                0x000000004025bc44                sdk_ieee80211_hostap_attach
                0x000000004025bcf4                sdk_hostap_handle_timer
                0x000000004025bd7c                sdk_hostap_input
                0x000000004025c670                sdk_wifi_softap_start
                0x000000004025c7bc                sdk_wifi_softap_stop
 *fill*         0x000000004025c879        0x3 
 .irom0.text    0x000000004025c87c      0xa90 ./build/sdklib/libnet80211.a(ieee80211_ht.o)
                                        0xb54 (size before relaxing)
                0x000000004025c88c                sdk_ieee80211_ht_attach
                0x000000004025c8dc                sdk_ieee80211_ht_node_init
                0x000000004025c920                sdk_ieee80211_ht_node_cleanup
                0x000000004025c958                sdk_ieee80211_parse_htcap
                0x000000004025ca30                sdk_ieee80211_ht_updateparams
                0x000000004025cb48                sdk_ieee80211_setup_htrates
                0x000000004025cc1c                sdk_ieee80211_setup_basic_htrates
                0x000000004025cf84                sdk_ieee80211_add_htcap
                0x000000004025cfa0                sdk_ieee80211_add_htcap_vendor
                0x000000004025d0c4                sdk_ieee80211_add_htinfo
                0x000000004025d0e0                sdk_ieee80211_add_htinfo_vendor
 .irom0.text    0x000000004025d30c      0x8d8 ./build/sdklib/libnet80211.a(ieee80211_input.o)
                                        0x950 (size before relaxing)
                0x000000004025d30c                sdk_ieee80211_deliver_data
                0x000000004025d360                sdk_ieee80211_decap
                0x000000004025d468                sdk_ieee80211_setup_rates
                0x000000004025d4d4                sdk_ieee80211_alloc_challenge
                0x000000004025d508                sdk_ieee80211_parse_beacon
                0x000000004025d974                sdk_ieee80211_parse_wpa
                0x000000004025da8c                sdk_ieee80211_parse_rsn
                0x000000004025db88                sdk_ieee80211_parse_action
                0x000000004025dbe0                sdk_ieee80211_setup_rateset
 .irom0.text    0x000000004025dbe4     0x17c7 ./build/sdklib/libnet80211.a(ieee80211_output.o)
                                       0x1a2f (size before relaxing)
                0x000000004025dbec                sdk_ieee80211_output_pbuf
                0x000000004025de6c                sdk_ieee80211_send_setup
                0x000000004025df98                sdk_ieee80211_mgmt_output
                0x000000004025e08c                sdk_ieee80211_tx_mgt_cb
                0x000000004025e090                sdk_ieee80211_send_nulldata
                0x000000004025e4e8                sdk_ieee80211_add_rates
                0x000000004025e520                sdk_ieee80211_add_xrates
                0x000000004025e5bc                sdk_ieee80211_send_probereq
                0x000000004025e768                sdk_ieee80211_getcapinfo
                0x000000004025e7c4                sdk_ieee80211_send_mgmt
                0x000000004025ed24                sdk_ieee80211_alloc_proberesp
                0x000000004025ef20                sdk_ieee80211_send_proberesp
                0x000000004025f260                sdk_ieee80211_beacon_alloc
 *fill*         0x000000004025f3ab        0x1 
 .irom0.text    0x000000004025f3ac      0x147 ./build/sdklib/libnet80211.a(ieee80211_phy.o)
                                        0x16f (size before relaxing)
                0x000000004025f3b0                sdk_ieee80211_get_11g_ratetable
                0x000000004025f3bc                sdk_ieee80211_get_ratetable
                0x000000004025f3d4                sdk_ieee80211_phy_init
                0x000000004025f408                sdk_ieee80211_phy_type_get
                0x000000004025f418                sdk_ieee80211_setup_ratetable
                0x000000004025f44c                sdk_ieee80211_compute_duration
                0x000000004025f4cc                sdk_ieee80211_dot11Rate_rix
 *fill*         0x000000004025f4f3        0x1 
 .irom0.text    0x000000004025f4f4      0x160 ./build/sdklib/libnet80211.a(ieee80211_power.o)
                                        0x17c (size before relaxing)
                0x000000004025f4f4                sdk_ieee80211_psq_init
                0x000000004025f50c                sdk_ieee80211_psq_cleanup
                0x000000004025f514                sdk_ieee80211_set_tim
                0x000000004025f554                sdk_ieee80211_pwrsave
                0x000000004025f620                sdk_ieee80211_node_pwrsave
 .irom0.text    0x000000004025f654      0x15b ./build/sdklib/libnet80211.a(ieee80211_proto.o)
                                        0x177 (size before relaxing)
                0x000000004025f658                sdk_ieee80211_proto_attach
                0x000000004025f680                sdk_ieee80211_set_shortslottime
                0x000000004025f69c                sdk_ieee80211_iserp_rateset
                0x000000004025f730                sdk_ieee80211_setbasicrates
                0x000000004025f744                sdk_ieee80211_addbasicrates
                0x000000004025f758                sdk_ieee80211_wme_initparams
                0x000000004025f75c                sdk_ieee80211_wme_updateparams
                0x000000004025f760                sdk_ieee80211_mlme_connect_bss
 *fill*         0x000000004025f7af        0x1 
 .irom0.text    0x000000004025f7b0      0xcf9 ./build/sdklib/libnet80211.a(ieee80211_scan.o)
                                       0x1029 (size before relaxing)
                0x000000004025f7c0                sdk_ieee80211_scan_attach
                0x000000004025f83c                sdk_scan_start
                0x000000004025f918                sdk_scan_pm_channel_op_cb
                0x000000004025fab0                sdk_scan_cancel
                0x000000004025fbbc                sdk_scan_add_bssid
                0x000000004025fbe0                sdk_scan_remove_bssid
                0x000000004025fbec                sdk_scan_hidden_ssid
                0x000000004025fbf4                sdk_scan_add_probe_ssid
                0x000000004025fc34                sdk_scan_remove_probe_ssid
                0x000000004025fd68                sdk_scan_clear_channles
                0x000000004025fdd8                sdk_scan_set_desChan
                0x000000004025fde4                sdk_scan_get_type
                0x000000004025fdec                sdk_cannel_scan_connect_state
                0x000000004025fe04                sdk_scan_connect_state
                0x000000004025fe4c                sdk_scan_check_hidden
                0x000000004025fe78                sdk_scan_profile_check
                0x00000000402601dc                sdk_scan_parse_beacon
 *fill*         0x00000000402604a9        0x3 
 .irom0.text    0x00000000402604ac      0xb49 ./build/sdklib/libnet80211.a(ieee80211_sta.o)
                                        0xd0d (size before relaxing)
                0x00000000402604d4                sdk_sta_status_set
                0x000000004026050c                sdk_ieee80211_sta_new_state
                0x00000000402606d8                sdk_sta_input
                0x0000000040260a4c                sdk_ieee80211_parse_wmeparams
                0x0000000040260f2c                sdk_wifi_station_start
                0x0000000040260fb0                sdk_wifi_station_stop
 *fill*         0x0000000040260ff5        0x3 
 .irom0.text    0x0000000040260ff8      0x32e ./build/sdklib/libnet80211.a(wl_chm.o)
                                        0x3da (size before relaxing)
                0x0000000040261004                sdk_chm_init
                0x00000000402610b0                sdk_chm_acquire_lock
                0x00000000402610f4                sdk_chm_release_lock
                0x0000000040261108                sdk_chm_start_op
                0x00000000402611a8                sdk_chm_end_op
                0x00000000402611f0                sdk_chm_cancel_op
                0x0000000040261224                sdk_chm_return_home_channel
                0x0000000040261258                sdk_chm_set_current_channel
                0x00000000402612d0                sdk_chm_freq2index
                0x00000000402612f8                sdk_chm_check_same_channel
 *fill*         0x0000000040261326        0x2 
 .irom0.text    0x0000000040261328     0x131d ./build/sdklib/libnet80211.a(wl_cnx.o)
                                       0x173d (size before relaxing)
                0x0000000040261334                sdk_cnx_attach
                0x0000000040261374                sdk_cnx_sta_connect_led_timer_cb
                0x00000000402613c8                sdk_cnx_sta_connect_cmd
                0x0000000040261478                sdk_cnx_sta_scan_cmd
                0x00000000402616c8                sdk_cnx_connect_timeout
                0x0000000040261730                sdk_cnx_start_handoff_cb
                0x0000000040261b40                sdk_cnx_bss_alloc
                0x0000000040261bf0                sdk_cnx_rc_search
                0x0000000040261cb8                sdk_cnx_add_rc
                0x0000000040261da4                sdk_cnx_remove_rc
                0x0000000040261e78                sdk_cnx_rc_update_rssi
                0x0000000040261efc                sdk_cnx_rc_update_state_metric
                0x0000000040261f68                sdk_cnx_rc_update_age
                0x0000000040261f8c                sdk_cnx_update_bss
                0x0000000040261fc4                sdk_cnx_update_bss_more
                0x0000000040262150                sdk_cnx_sta_leave
                0x0000000040262270                sdk_cnx_sta_associated
                0x00000000402622cc                sdk_cnx_node_alloc
                0x000000004026232c                sdk_cnx_node_remove
                0x00000000402623a0                sdk_cnx_node_search
                0x0000000040262400                sdk_cnx_node_leave
                0x00000000402624bc                sdk_cnx_node_join
 *fill*         0x0000000040262645        0x3 
 .irom0.text    0x0000000040262648      0x161 ./build/sdklib/libnet80211.a(ieee80211_action.o)
                                        0x181 (size before relaxing)
                0x0000000040262658                sdk_ieee80211_send_action_register
                0x000000004026268c                sdk_ieee80211_send_action_unregister
                0x00000000402626a0                sdk_ieee80211_send_action
                0x0000000040262704                sdk_ieee80211_recv_action_register
                0x0000000040262738                sdk_ieee80211_recv_action_unregister
                0x000000004026274c                sdk_ieee80211_recv_action
 *fill*         0x00000000402627a9        0x3 
 .irom0.text    0x00000000402627ac       0x45 ./build/sdklib/libnet80211.a(ieee80211_ets.o)
                                         0x49 (size before relaxing)
                0x00000000402627ac                sdk_ieee80211_getmgtframe
 *fill*         0x00000000402627f1        0x3 
 .irom0.text    0x00000000402627f4       0xfa ./build/sdklib/libphy.a(phy.o)
                                        0x11e (size before relaxing)
                0x00000000402627f8                sdk_rf_init
                0x0000000040262814                sdk_bb_init
                0x000000004026282c                sdk_phy_init
                0x000000004026285c                sdk_RFChannelSel
                0x0000000040262878                sdk_phy_delete_channel
                0x0000000040262890                sdk_phy_enable_agc
                0x00000000402628a8                sdk_phy_disable_agc
                0x00000000402628c0                sdk_phy_initialize_bb
                0x00000000402628d8                sdk_phy_set_sense
 *fill*         0x00000000402628ee        0x2 
 .irom0.text    0x00000000402628f0     0x1466 ./build/sdklib/libphy.a(phy_chip_v6_ana.o)
                                       0x168e (size before relaxing)
                0x00000000402628f4                sdk_ram_pbus_set_rxgain
                0x00000000402629c8                sdk_ram_pbus_debugmode
                0x0000000040262a7c                sdk_ram_pbus_xpd_tx_on
                0x0000000040262ae8                sdk_set_rf_freq_offset
                0x0000000040262b58                sdk_chip_v6_rxmax_ext_ana
                0x0000000040262ca8                sdk_ram_chip_v6_rx_init
                0x0000000040262cd8                sdk_tsen_meas
                0x0000000040262d84                sdk_readvdd33
                0x0000000040262f14                sdk_txpwr_offset
                0x0000000040262fbc                sdk_set_txcap_reg
                0x000000004026303c                sdk_ram_restart_cal
                0x00000000402630a8                sdk_wait_rfpll_cal_end
                0x000000004026311c                sdk_ram_rfpll_set_freq
                0x00000000402631f4                sdk_ram_set_channel_freq
                0x00000000402634fc                sdk_chip_60_set_channel
                0x00000000402635e8                sdk_chip_v6_set_chan_offset
                0x0000000040263654                sdk_chip_v6_set_chan
                0x00000000402636cc                sdk_chip_v6_set_chan_wakeup
                0x000000004026374c                sdk_chip_v6_rf_init
                0x0000000040263958                sdk_low_power_set
                0x00000000402639b8                sdk_test_tout
                0x0000000040263be4                sdk_check_data_flag
                0x0000000040263c04                sdk_get_check_flag
 *fill*         0x0000000040263d56        0x2 
 .irom0.text    0x0000000040263d58     0x339d ./build/sdklib/libphy.a(phy_chip_v6.o)
                                       0x3a51 (size before relaxing)
                0x0000000040263d58                sdk_ram_tx_mac_enable
                0x0000000040263d5c                sdk_rtc_mem_backup
                0x0000000040263d8c                sdk_rtc_mem_recovery
                0x0000000040263dbc                sdk_set_cal_rxdc
                0x0000000040263e74                sdk_set_rx_gain_cal_iq
                0x00000000402641d0                sdk_gen_rx_gain_table
                0x0000000040264310                sdk_pbus_set_rxbbgain
                0x0000000040264390                sdk_set_rx_gain_testchip_50
                0x00000000402646a4                sdk_ram_get_corr_power
                0x0000000040264794                sdk_check_data_func
                0x00000000402647b4                sdk_do_noisefloor_lsleep_v50
                0x00000000402647e8                sdk_do_noisefloor
                0x0000000040264858                sdk_start_dig_rx
                0x000000004026489c                sdk_stop_dig_rx
                0x00000000402648c8                sdk_chip_v6_set_chanfreq
                0x00000000402648f4                sdk_tx_cap_init
                0x0000000040264ab0                sdk_target_power_add_backoff
                0x0000000040264b00                sdk_tx_pwctrl_init_cal
                0x0000000040264c68                sdk_tx_atten_set_interp
                0x0000000040264edc                sdk_tx_pwctrl_init
                0x0000000040264fd8                sdk_ram_get_noisefloor
                0x0000000040264ff4                sdk_get_noisefloor_sat
                0x0000000040265024                sdk_ram_set_noise_floor
                0x0000000040265080                sdk_ram_start_noisefloor
                0x00000000402650cc                sdk_read_hw_noisefloor
                0x00000000402650f8                sdk_noise_check_loop
                0x0000000040265260                sdk_noise_init
                0x0000000040265460                sdk_target_power_backoff
                0x00000000402654b4                sdk_sdt_on_noise_start
                0x0000000040265538                sdk_chip_v6_set_chan_rx_cmp
                0x00000000402656c0                sdk_chip_v6_set_chan_misc
                0x000000004026573c                sdk_phy_dig_spur_set
                0x0000000040265a38                sdk_phy_dig_spur_prot
                0x0000000040265c70                sdk_chip_v6_rxmax_ext_dig
                0x0000000040265cbc                sdk_chip_v6_rxmax_ext
                0x0000000040265d64                sdk_phy_bb_rx_cfg
                0x000000004026611c                sdk_uart_wait_idle
                0x0000000040266150                sdk_phy_pbus_soc_cfg
                0x0000000040266210                sdk_phy_gpio_cfg
                0x0000000040266544                sdk_tx_cont_en
                0x00000000402665ec                sdk_tx_cont_dis
                0x0000000040266640                sdk_tx_cont_cfg
                0x0000000040266660                sdk_chip_v6_initialize_bb
                0x0000000040266800                sdk_periodic_cal
                0x000000004026690c                sdk_bbpll_cal
                0x0000000040266998                sdk_periodic_cal_top
                0x00000000402669f8                sdk_register_chipv6_phy_init_param
                0x0000000040266c7c                sdk_change_bbpll160_sleep
                0x0000000040266d6c                sdk_change_bbpll160
                0x0000000040266d9c                sdk_set_crystal_uart
                0x0000000040266e0c                sdk_ant_switch_init
                0x0000000040266ef0                sdk_register_chipv6_phy
 *fill*         0x00000000402670f5        0x3 
 .irom0.text    0x00000000402670f8     0x2537 ./build/sdklib/libphy.a(phy_chip_v6_cal.o)
                                       0x27e3 (size before relaxing)
                0x00000000402670f8                sdk_txbbgain2dcoindex
                0x0000000040267118                sdk_dcoindex2txbbgain
                0x0000000040267138                sdk_init_cal_dcoffset
                0x00000000402671fc                sdk_set_rfanagain_dc_reg
                0x0000000040267298                sdk_set_txdc_pbus
                0x0000000040267304                sdk_get_rf_gain_qdb
                0x000000004026732c                sdk_correct_rf_ana_gain
                0x0000000040267434                sdk_get_sar_dout
                0x00000000402674cc                sdk_cal_rf_ana_gain
                0x00000000402675a4                sdk_meas_tone_pwr_db
                0x0000000040267614                sdk_tx_pwr_backoff
                0x0000000040267760                sdk_get_fcc_1m2m_pwr_offset
                0x000000004026779c                sdk_ram_set_txbb_atten
                0x0000000040267830                sdk_txiq_get_mis_pwr
                0x00000000402678d4                sdk_txiq_cover
                0x0000000040267aec                sdk_ram_rfcal_txiq
                0x0000000040267d58                sdk_rc_cal
                0x0000000040267f14                sdk_get_target_power_offset
                0x0000000040268008                sdk_get_pwctrl_correct
                0x0000000040268060                sdk_tx_pwctrl_cal
                0x00000000402683a0                sdk_tx_pwctrl_bg_init
                0x0000000040268410                sdk_tx_pwctrl_background
                0x000000004026853c                sdk_read_sar_dout
                0x00000000402685a0                sdk_ram_get_fm_sar_dout
                0x0000000040268644                sdk_ram_cal_tos_v60
                0x0000000040268824                sdk_ram_get_bb_atten
                0x0000000040268854                sdk_ram_rfcal_txcap
                0x0000000040268a18                sdk_ram_rfcal_pwrctrl
                0x0000000040268c34                sdk_ram_rxiq_get_mis
                0x0000000040268e00                sdk_ram_rxiq_cover_mg_mp
                0x0000000040268fa4                sdk_ram_rfcal_rxiq
                0x00000000402691b0                sdk_dpd_scale_set
                0x00000000402691f8                sdk_dpd_mem_write
                0x0000000040269280                sdk_dpd_init
 *fill*         0x000000004026962f        0x1 
 .irom0.text    0x0000000040269630      0x269 ./build/sdklib/libphy.a(phy_chip_v6_unused.o)
                                        0x2fd (size before relaxing)
                0x0000000040269630                sdk_chip_v6_set_sense
                0x0000000040269634                sdk_chip_v6_get_sense
                0x0000000040269638                sdk_chip_v6_unset_chanfreq
                0x0000000040269644                sdk_data_collect
                0x0000000040269718                sdk_operation_test
                0x0000000040269790                sdk_slop_wdt_feed
                0x00000000402697a4                sdk_slop_test
                0x0000000040269850                sdk_wd_reset_cnt
 *fill*         0x0000000040269899        0x3 
 .irom0.text    0x000000004026989c      0xbca ./build/sdklib/libphy.a(phy_sleep.o)
                                        0xe02 (size before relaxing)
                0x000000004026989c                sdk_pm_usec2rtc
                0x00000000402698d0                sdk_pm_rtc2usec
                0x00000000402698dc                sdk_pm_set_sleep_cycles
                0x0000000040269904                sdk_pm_sleep_opt
                0x00000000402699f4                sdk_pm_wakeup_opt
                0x0000000040269a2c                sdk_get_chip_version
                0x0000000040269a6c                sdk_pm_sleep_opt_bb_off
                0x0000000040269aac                sdk_pm_sleep_opt_bb_on
                0x0000000040269af8                sdk_pm_set_pll_xtal_wait_time
                0x0000000040269b40                sdk_pm_prepare_to_sleep
                0x0000000040269b64                sdk_pm_sdio_nidle
                0x0000000040269be0                sdk_pm_goto_sleep
                0x0000000040269c5c                sdk_pm_wait4wakeup
                0x0000000040269c94                sdk_pm_open_rf
                0x0000000040269cd4                sdk_pm_sleep_set_mac
                0x0000000040269d58                sdk_pm_set_wakeup_mac
                0x0000000040269df4                sdk_pm_check_mac_idle
                0x0000000040269e4c                sdk_pm_set_sleep_btco
                0x0000000040269ee4                sdk_pm_set_wakeup_btco
                0x0000000040269fec                sdk_pm_set_sleep_mode
                0x000000004026a0bc                sdk_pm_unmask_bt
                0x000000004026a11c                sdk_pm_wakeup_init
                0x000000004026a30c                sdk_sleep_opt_8266
                0x000000004026a32c                sdk_sleep_opt_bb_on_8266
                0x000000004026a364                sdk_sleep_reset_analog_rtcreg_8266
 *fill*         0x000000004026a466        0x2 
 .irom0.text    0x000000004026a468      0x9b4 ./build/sdklib/libphy.a(phy_chip_v5_romfunc.o)
                                        0xab4 (size before relaxing)
                0x000000004026a468                sdk_rom_abs_temp
                0x000000004026a474                sdk_rom_chip_v5_disable_cca
                0x000000004026a490                sdk_rom_chip_v5_enable_cca
                0x000000004026a4b0                sdk_rom_chip_v5_sense_backoff
                0x000000004026a4fc                sdk_rom_dc_iq_est
                0x000000004026a558                sdk_rom_en_pwdet
                0x000000004026a5c8                sdk_rom_get_bb_atten
                0x000000004026a5f0                sdk_rom_get_corr_power
                0x000000004026a66c                sdk_rom_get_fm_sar_dout
                0x000000004026a708                sdk_rom_get_noisefloor
                0x000000004026a724                sdk_rom_get_power_db
                0x000000004026a774                sdk_rom_iq_est_disable
                0x000000004026a7a4                sdk_rom_iq_est_enable
                0x000000004026a7f8                sdk_rom_linear_to_db
                0x000000004026a870                sdk_rom_set_txclk_en
                0x000000004026a8b4                sdk_rom_set_rxclk_en
                0x000000004026a8f8                sdk_rom_mhz2ieee
                0x000000004026a95c                sdk_rom_rxiq_get_mis
                0x000000004026aa84                sdk_rom_sar_init
                0x000000004026aad8                sdk_rom_set_ana_inf_tx_scale
                0x000000004026ab14                sdk_rom_set_loopback_gain
                0x000000004026ab78                sdk_rom_set_noise_floor
                0x000000004026abb4                sdk_rom_start_noisefloor
                0x000000004026abf0                sdk_rom_start_tx_tone
                0x000000004026acb8                sdk_rom_stop_tx_tone
                0x000000004026ad44                sdk_rom_txtone_linear_pwr
                0x000000004026adac                sdk_rom_tx_mac_disable
                0x000000004026ade8                sdk_rom_tx_mac_enable
 .irom0.text    0x000000004026ae1c      0xf2f ./build/sdklib/libphy.a(phy_chip_v5_ana_romfunc.o)
                                       0x112b (size before relaxing)
                0x000000004026ae1c                sdk_rom_ana_inf_gating_en
                0x000000004026af88                sdk_rom_set_channel_freq
                0x000000004026b29c                sdk_rom_chip_50_set_channel
                0x000000004026b488                sdk_rom_chip_v5_rx_init
                0x000000004026b4f4                sdk_rom_chip_v5_tx_init
                0x000000004026b5c8                sdk_rom_i2c_readReg
                0x000000004026b5fc                sdk_rom_i2c_readReg_Mask
                0x000000004026b638                sdk_rom_i2c_writeReg
                0x000000004026b66c                sdk_rom_i2c_writeReg_Mask
                0x000000004026b6dc                sdk_rom_pbus_debugmode
                0x000000004026b76c                sdk_rom_pbus_enter_debugmode
                0x000000004026b7a0                sdk_rom_pbus_exit_debugmode
                0x000000004026b7d4                sdk_rom_pbus_force_test
                0x000000004026b830                sdk_rom_pbus_rd
                0x000000004026b89c                sdk_rom_pbus_set_rxgain
                0x000000004026b960                sdk_rom_pbus_set_txgain
                0x000000004026b994                sdk_rom_pbus_workmode
                0x000000004026b9d4                sdk_rom_pbus_xpd_rx_off
                0x000000004026ba1c                sdk_rom_pbus_xpd_rx_on
                0x000000004026ba4c                sdk_rom_pbus_xpd_tx_off
                0x000000004026ba8c                sdk_rom_pbus_xpd_tx_on
                0x000000004026baec                sdk_rom_pbus_xpd_tx_on__low_gain
                0x000000004026bb50                sdk_rom_phy_reset_req
                0x000000004026bb68                sdk_rom_restart_cal
                0x000000004026bbb4                sdk_rom_rfpll_reset
                0x000000004026bc24                sdk_rom_write_rfpll_sdm
                0x000000004026bca4                sdk_rom_rfpll_set_freq
 *fill*         0x000000004026bd4b        0x1 
 .irom0.text    0x000000004026bd4c     0x1136 ./build/sdklib/libphy.a(phy_chip_v5_cal_romfunc.o)
                                       0x124a (size before relaxing)
                0x000000004026bd4c                sdk_rom_cal_tos_v50
                0x000000004026bef8                sdk_rom_pbus_dco___SA2
                0x000000004026c1b0                sdk_rom_rfcal_pwrctrl
                0x000000004026c338                sdk_rom_rfcal_rxiq
                0x000000004026c544                sdk_rom_rfcal_rxiq_set_reg
                0x000000004026c648                sdk_rom_rfcal_txcap
                0x000000004026c8a8                sdk_rom_rfcal_txiq
                0x000000004026caf4                sdk_rom_rfcal_txiq_cover
                0x000000004026caf8                sdk_rom_rfcal_txiq_set_reg
                0x000000004026cbd4                sdk_rom_rxiq_cover_mg_mp
                0x000000004026cd20                sdk_rom_set_txbb_atten
                0x000000004026cdf0                sdk_rom_set_txiq_cal
 *fill*         0x000000004026ce82        0x2 
 .irom0.text    0x000000004026ce84      0x5a3 ./build/sdklib/libpp.a(esf_buf.o)
                                        0x6bf (size before relaxing)
                0x000000004026ce88                sdk_esf_buf_alloc
                0x000000004026d0bc                sdk_esf_buf_recycle
                0x000000004026d31c                sdk_esf_buf_setup
 *fill*         0x000000004026d427        0x1 
 .irom0.text    0x000000004026d428      0x3a6 ./build/sdklib/libpp.a(if_hwctrl.o)
                                        0x466 (size before relaxing)
                0x000000004026d42c                sdk_ic_get_addr
                0x000000004026d438                sdk_ic_set_opmode
                0x000000004026d44c                sdk_ic_enable_interface
                0x000000004026d49c                sdk_ic_interface_enabled
                0x000000004026d4b0                sdk_ic_disable_interface
                0x000000004026d4f8                sdk_ic_is_pure_sta
                0x000000004026d514                sdk_ic_get_ptk_alg
                0x000000004026d524                sdk_ic_get_gtk_alg
                0x000000004026d534                sdk_ic_set_ptk_alg
                0x000000004026d544                sdk_ic_set_gtk_alg
                0x000000004026d554                sdk_ic_interface_is_p2p
                0x000000004026d5d4                sdk_ic_set_vif
                0x000000004026d644                sdk_ic_set_sta
                0x000000004026d704                sdk_ic_bss_info_update
                0x000000004026d760                sdk_ic_set_key
                0x000000004026d7bc                sdk_ic_remove_key
 *fill*         0x000000004026d7ce        0x2 
 .irom0.text    0x000000004026d7d0       0xde ./build/sdklib/libpp.a(lmac.o)
                                         0xf2 (size before relaxing)
                0x000000004026d7d4                sdk_lmacInitAc
                0x000000004026d808                sdk_lmacInit
 *fill*         0x000000004026d8ae        0x2 
 .irom0.text    0x000000004026d8b0     0x171d ./build/sdklib/libpp.a(pm.o)
                                       0x1c39 (size before relaxing)
                0x000000004026d90c                sdk_pm_rtc_clock_cali_proc
                0x000000004026d944                sdk_pm_set_sleep_time
                0x000000004026da88                sdk_pm_rf_is_closed
                0x000000004026dab8                sdk_pm_set_sleep_type_from_upper
                0x000000004026db30                sdk_pm_get_sleep_type
                0x000000004026dc58                sdk_uart_tx_flush
                0x000000004026dc5c                sdk_pm_suspend
                0x000000004026df78                sdk_pm_shutdown
                0x000000004026e05c                sdk_pm_reset_idle_sleep
                0x000000004026e094                sdk_pm_idle_sleep
                0x000000004026e0a0                sdk_pm_open
                0x000000004026e18c                sdk_pm_onBcnRx
                0x000000004026e8a8                sdk_pm_enable_gpio_wakeup
                0x000000004026e8ec                sdk_pm_attach
                0x000000004026e9fc                sdk_pm_send_nullfunc
                0x000000004026ebcc                sdk_pm_is_waked
                0x000000004026ebe4                sdk_pm_is_open
                0x000000004026ebfc                sdk_pm_scan_lock
                0x000000004026ec2c                sdk_pm_try_scan_unlock
                0x000000004026ec44                sdk_pm_force_scan_unlock
                0x000000004026ed00                sdk_pm_scan_unlocked
                0x000000004026ed14                sdk_pm_allow_tx
                0x000000004026ed34                sdk_pm_assoc_parse
                0x000000004026ed4c                sdk_pm_set_addr
                0x000000004026ed6c                sdk_pm_sleep_for
                0x000000004026eda8                sdk_pm_post
                0x000000004026ef8c                sdk_pm_get_idle_wait_time
 *fill*         0x000000004026efcd        0x3 
 .irom0.text    0x000000004026efd0     0x1245 ./build/sdklib/libpp.a(pp.o)
                                       0x152d (size before relaxing)
                0x000000004026efd4                sdk_PPWdtReset
                0x000000004026effc                sdk_pp_soft_wdt_init
                0x000000004026f01c                sdk_RxNodeNum
                0x000000004026f040                sdk_TxNodeNum
                0x000000004026f08c                sdk_pp_disable_noise_timer
                0x000000004026f0a8                sdk_pp_enable_noise_timer
                0x000000004026f170                sdk_pp_noise_test
                0x000000004026f180                sdk_reset_noise_timer
                0x000000004026f1b4                sdk_pp_disable_idle_timer
                0x000000004026f1d8                sdk_pp_enable_idle_timer
                0x000000004026f200                sdk_pp_try_enable_idle_timer
                0x000000004026f230                sdk_ppPeocessRxPktHdr
                0x000000004026f290                sdk_ppTask
                0x000000004026f638                sdk_ppTxPkt
                0x000000004026f814                sdk_ppProcessWaitQ
                0x000000004026f828                sdk_ppRegisterTxCallback
                0x000000004026f864                sdk_ppRecycleRxPkt
                0x000000004026f8c4                sdk_ppCheckTxIdle
                0x000000004026fe10                sdk_ppGetTxQFirstAvail_Locked
                0x000000004026ffc4                sdk_pp_attach
 *fill*         0x0000000040270215        0x3 
 .irom0.text    0x0000000040270218      0x296 ./build/sdklib/libpp.a(rate_control.o)
                                        0x2a2 (size before relaxing)
                0x0000000040270464                sdk_RC_SetBasicRate
 *fill*         0x00000000402704ae        0x2 
 .irom0.text    0x00000000402704b0      0x40d ./build/sdklib/libpp.a(trc.o)
                                        0x46d (size before relaxing)
                0x00000000402704dc                sdk_rcUpdatePhyMode
                0x00000000402705b8                sdk_rcAttach
                0x0000000040270604                sdk_rcGetTrc
                0x000000004027060c                sdk_trc_onDisconnect
                0x0000000040270610                sdk_trc_onScanStart
                0x0000000040270630                sdk_trc_onScanDone
                0x0000000040270650                sdk_rc_enable_trc
                0x0000000040270718                sdk_rc_get_mask
                0x000000004027072c                sdk_rc_disable_trc
                0x00000000402707a4                sdk_rc_disable_trc_by_interface
                0x00000000402707c0                sdk_rc_get_sta_trc
                0x0000000040270800                sdk_rc_get_trc
                0x0000000040270870                sdk_rc_get_trc_by_index
                0x0000000040270890                sdk_rc_only_sta_trc
 *fill*         0x00000000402708bd        0x3 
 .irom0.text    0x00000000402708c0      0xa47 ./build/sdklib/libpp.a(wdev.o)
                                        0xb7f (size before relaxing)
                0x00000000402708cc                sdk_wDev_Option_Init
                0x000000004027099c                sdk_wDev_Enable_Beacon_Tsf
                0x00000000402709b8                sdk_wDev_Disable_Beacon_Tsf
                0x00000000402709d4                sdk_wDev_Set_Beacon_Int
                0x00000000402709dc                sdk_wDev_Reset_TBTT
                0x0000000040270a0c                sdk_wDev_Get_Next_TBTT
                0x0000000040270ca4                sdk_wDev_MacTim1SetFunc
                0x0000000040270cc4                sdk_wDev_Initialize
                0x0000000040270d2c                sdk_wDevForceAck6M
                0x0000000040270d48                sdk_wDev_SetMacAddress
                0x0000000040270de4                sdk_wDev_SetRxPolicy
                0x0000000040270e38                sdk_wDev_SetBssid
                0x0000000040270f10                sdk_wDev_ClearBssid
                0x0000000040270f48                sdk_wDev_Insert_KeyEntry
                0x000000004027101c                sdk_wDev_remove_KeyEntry
                0x000000004027105c                sdk_wDev_Crypto_Conf
                0x00000000402710f8                sdk_wDev_Crypto_Disable
                0x0000000040271130                sdk_wDevDisableRx
                0x0000000040271148                sdk_wDevEnableRx
                0x000000004027116c                sdk_wdev_go_sniffer
                0x0000000040271244                sdk_wdev_exit_sniffer
 *fill*         0x0000000040271307        0x1 
 .irom0.text    0x0000000040271308      0x27e ./build/sdklib/libwpa.a(ap_config.o)
                                        0x2ba (size before relaxing)
                0x0000000040271308                sdk_hostapd_config_defaults_bss
                0x0000000040271350                sdk_hostapd_config_defaults
                0x00000000402713bc                sdk_hostapd_mac_comp
                0x00000000402713d4                sdk_hostapd_mac_comp_empty
                0x000000004027142c                sdk_hostapd_setup_wpa_psk
                0x000000004027145c                sdk_hostapd_wep_key_cmp
                0x00000000402714ac                sdk_hostapd_maclist_found
                0x0000000040271518                sdk_hostapd_rate_found
                0x0000000040271534                sdk_hostapd_get_psk
 *fill*         0x0000000040271586        0x2 
 .irom0.text    0x0000000040271588      0x248 ./build/sdklib/libwpa.a(common.o)
                                        0x28c (size before relaxing)
                0x0000000040271588                sdk_inc_byte_array
                0x00000000402715dc                sdk_hex2byte
                0x0000000040271610                sdk_hexstr2bin
                0x000000004027165c                sdk_wpa_get_ntp_timestamp
                0x00000000402716f0                sdk_wpa_config_parse_string
 .irom0.text    0x00000000402717d0       0x57 ./build/sdklib/libwpa.a(os_xtensa.o)
                                         0x63 (size before relaxing)
                0x00000000402717d0                sdk_os_get_time
                0x00000000402717d4                os_random
                0x00000000402717e8                os_get_random
 *fill*         0x0000000040271827        0x1 
 .irom0.text    0x0000000040271828      0x149 ./build/sdklib/libwpa.a(sha1-pbkdf2.o)
                                        0x165 (size before relaxing)
                0x000000004027190c                sdk_pbkdf2_sha1
 *fill*         0x0000000040271971        0x3 
 .irom0.text    0x0000000040271974     0x1ca7 ./build/sdklib/libwpa.a(wpa_auth.o)
                                       0x1f47 (size before relaxing)
                0x0000000040271ab4                sdk_wpa_auth_for_each_sta
                0x0000000040271c18                sdk_wpa_init
                0x0000000040271c8c                sdk_wpa_auth_sta_init
                0x0000000040271ccc                sdk_wpa_auth_sta_associated
                0x0000000040271d48                sdk_wpa_auth_sta_no_wpa
                0x0000000040271d94                sdk_wpa_auth_sta_deinit
                0x0000000040271e70                sdk_wpa_receive
                0x00000000402722dc                sdk___wpa_send_eapol
                0x00000000402727c0                sdk_wpa_remove_ptk
                0x000000004027280c                sdk_wpa_auth_sm_event
 *fill*         0x000000004027361b        0x1 
 .irom0.text    0x000000004027361c      0x569 ./build/sdklib/libwpa.a(wpa_auth_ie.o)
                                        0x5d5 (size before relaxing)
                0x00000000402736e0                sdk_wpa_write_rsn_ie
                0x00000000402737e8                sdk_wpa_auth_gen_wpa_ie
                0x000000004027386c                sdk_wpa_add_kde
                0x00000000402738d8                sdk_wpa_validate_wpa_ie
                0x0000000040273ad8                sdk_wpa_parse_kde_ies
                0x0000000040273b74                sdk_wpa_auth_uses_mfp
 *fill*         0x0000000040273b85        0x3 
 .irom0.text    0x0000000040273b88     0x140c ./build/sdklib/libwpa.a(wpa.o)
                                       0x1660 (size before relaxing)
                0x0000000040274ad8                sdk_wpa_sm_rx_eapol
                0x0000000040274c3c                sdk_wpa_register
                0x0000000040274c68                sdk_wpa_set_profile
                0x0000000040274c78                sdk_wpa_set_pmk
                0x0000000040274ca4                sdk_wpa_set_bss
                0x0000000040274e88                sdk_pp_michael_mic_failure
                0x0000000040274f1c                sdk_eapol_txcb
                0x0000000040274f6c                sdk_wpa_sm_set_state
 .irom0.text    0x0000000040274f94      0x732 ./build/sdklib/libwpa.a(wpa_common.o)
                                        0x7ca (size before relaxing)
                0x00000000402750dc                sdk_wpa_parse_wpa_ie_rsn
                0x0000000040275270                sdk_wpa_parse_wpa_ie_wpa
                0x00000000402753f4                sdk_wpa_eapol_key_mic
                0x0000000040275434                sdk_wpa_compare_rsn_ie
                0x000000004027545c                sdk_wpa_pmk_to_ptk
                0x0000000040275548                sdk_rsn_pmkid
                0x000000004027557c                sdk_wpa_cipher_key_len
                0x00000000402755a0                sdk_wpa_cipher_to_alg
                0x00000000402755c8                sdk_wpa_cipher_to_suite
                0x000000004027561c                sdk_rsn_cipher_put_suites
                0x000000004027567c                sdk_wpa_cipher_put_suites
 *fill*         0x00000000402756c6        0x2 
 .irom0.text    0x00000000402756c8      0x325 ./build/sdklib/libwpa.a(wpa_ie.o)
                                        0x341 (size before relaxing)
                0x00000000402756c8                sdk_wpa_parse_wpa_ie
                0x00000000402757bc                sdk_wpa_supplicant_parse_ies
                0x00000000402759bc                sdk_wpa_gen_wpa_ie
 *fill*         0x00000000402759ed        0x3 
 .irom0.text    0x00000000402759f0      0x2d3 ./build/sdklib/libwpa.a(wpa_main.o)
                                        0x387 (size before relaxing)
                0x00000000402759f0                sdk_ppInstallKey
                0x0000000040275af8                sdk_wpa_config_profile
                0x0000000040275b30                sdk_wpa_config_bss
                0x0000000040275b70                sdk_wpa_config_assoc_ie
                0x0000000040275b84                sdk_dhcp_bind_check
                0x0000000040275bb0                sdk_eagle_auth_done
                0x0000000040275c64                sdk_wpa_neg_complete
                0x0000000040275c8c                sdk_wpa_attach
 *fill*         0x0000000040275cc3        0x1 
 .irom0.text    0x0000000040275cc4       0xd6 ./build/sdklib/libwpa.a(wpas_glue.o)
                                         0xe2 (size before relaxing)
                0x0000000040275d38                sdk_wpa_sm_alloc_eapol
                0x0000000040275d74                sdk_wpa_sm_deauthenticate
                0x0000000040275d90                sdk_wpa_sm_mlme_setprotection
                0x0000000040275d94                sdk_wpa_sm_get_beacon_ie
                0x0000000040275d98                sdk_wpa_sm_disassociate
 *fill*         0x0000000040275d9a        0x2 
 .irom0.text    0x0000000040275d9c       0xf0 ./build/sdklib/libwpa.a(aes-unwrap.o)
                                        0x114 (size before relaxing)
                0x0000000040275d9c                sdk_aes_unwrap
 .irom0.text    0x0000000040275e8c       0xdf ./build/sdklib/libwpa.a(aes-wrap.o)
                                        0x103 (size before relaxing)
                0x0000000040275e8c                sdk_aes_wrap
 *fill*         0x0000000040275f6b        0x1 
 .irom0.text    0x0000000040275f6c      0x14f ./build/sdklib/libwpa.a(md5.o)
                                        0x16b (size before relaxing)
                0x0000000040275f6c                sdk_hmac_md5_vector
                0x000000004027609c                sdk_hmac_md5
 *fill*         0x00000000402760bb        0x1 
 .irom0.text    0x00000000402760bc      0x8a4 ./build/sdklib/libwpa.a(md5-internal.o)
                                        0x9dc (size before relaxing)
                0x00000000402760bc                sdk_md5_vector
                0x0000000040276110                sdk_MD5Init
                0x000000004027612c                sdk_MD5Update
                0x00000000402761ec                sdk_MD5Final
 .irom0.text    0x0000000040276960      0x216 ./build/sdklib/libwpa.a(sha1.o)
                                        0x23a (size before relaxing)
                0x0000000040276960                sdk_hmac_sha1_vector
                0x0000000040276a94                sdk_hmac_sha1
                0x0000000040276ab4                sdk_sha1_prf
 *fill*         0x0000000040276b76        0x2 
 .irom0.text    0x0000000040276b78     0x14e7 ./build/sdklib/libwpa.a(sha1-internal.o)
                                       0x157b (size before relaxing)
                0x0000000040276b78                sdk_sha1_vector
                0x0000000040276bd8                sdk_SHA1Transform
                0x0000000040277ec0                sdk_SHA1Init
                0x0000000040277ee4                sdk_SHA1Update
                0x0000000040277f80                sdk_SHA1Final
 *fill*         0x000000004027805f        0x1 
 .irom0.text    0x0000000040278060      0x557 ./build/sdklib/libwpa.a(aes-internal-dec.o)
                                        0x573 (size before relaxing)
                0x0000000040278068                sdk_rijndaelKeySetupDec
                0x000000004027813c                sdk_aes_decrypt_init
                0x0000000040278590                sdk_aes_decrypt
                0x00000000402785a0                sdk_aes_decrypt_deinit
 *fill*         0x00000000402785b7        0x1 
 .irom0.text    0x00000000402785b8      0x47d ./build/sdklib/libwpa.a(aes-internal-enc.o)
                                        0x49d (size before relaxing)
                0x00000000402785b8                sdk_rijndaelEncrypt
                0x00000000402789d0                sdk_aes_encrypt_init
                0x0000000040278a00                sdk_aes_encrypt
                0x0000000040278a10                sdk_aes_encrypt_deinit
 *fill*         0x0000000040278a35        0x3 
 .irom0.text    0x0000000040278a38      0x10a ./build/sdklib/libwpa.a(aes-internal.o)
                                        0x11a (size before relaxing)
                0x0000000040278a3c                sdk_rijndaelKeySetupEnc
 *fill*         0x0000000040278b42        0x2 
 .irom0.text    0x0000000040278b44      0x131 ./build/sdklib/libnet80211.a(ieee80211_crypto_ccmp.o)
                                        0x135 (size before relaxing)
 *fill*         0x0000000040278c75        0x3 
 .irom0.text    0x0000000040278c78      0x15b ./build/sdklib/libnet80211.a(ieee80211_crypto_tkip.o)
                                        0x167 (size before relaxing)
 *fill*         0x0000000040278dd3        0x1 
 .irom0.text    0x0000000040278dd4       0x7c ./build/sdklib/libnet80211.a(ieee80211_crypto_wep.o)
                                         0x80 (size before relaxing)
 .irom0.literal
                0x0000000040278e50        0x0 ./build/sdklib/libmain.a(app_main.o)
 *fill*         0x0000000040278e50        0x0 
 .irom.text     0x0000000040278e50       0x80 ./build/sdklib/libmain.a(app_main.o)
 .irom0.literal
                0x0000000040278ed0        0x0 ./build/sdklib/libmain.a(ets_timer.o)
 *fill*         0x0000000040278ed0        0x0 
 .irom0.literal
                0x0000000040278ed0        0x0 ./build/sdklib/libmain.a(misc.o)
 .irom0.literal
                0x0000000040278ed0        0x0 ./build/sdklib/libmain.a(uart.o)
 *fill*         0x0000000040278ed0        0x0 
 .irom0.literal
                0x0000000040278ed0        0x0 ./build/sdklib/libmain.a(user_interface.o)
 *fill*         0x0000000040278ed0        0x0 
 .irom0.literal
                0x0000000040278ed0        0x0 ./build/sdklib/libmain.a(timers.o)
 *fill*         0x0000000040278ed0        0x0 
 .irom0.literal
                0x0000000040278ed0        0x0 ./build/sdklib/libnet80211.a(ieee80211.o)
 *fill*         0x0000000040278ed0        0x0 
 .irom0.literal
                0x0000000040278ed0        0x0 ./build/sdklib/libnet80211.a(ieee80211_crypto.o)
 *fill*         0x0000000040278ed0        0x0 
 .irom0.literal
                0x0000000040278ed0        0x0 ./build/sdklib/libnet80211.a(ieee80211_hostap.o)
 *fill*         0x0000000040278ed0        0x0 
 .irom0.literal
                0x0000000040278ed0        0x0 ./build/sdklib/libnet80211.a(ieee80211_ht.o)
 .irom0.literal
                0x0000000040278ed0        0x0 ./build/sdklib/libnet80211.a(ieee80211_input.o)
 .irom0.literal
                0x0000000040278ed0        0x0 ./build/sdklib/libnet80211.a(ieee80211_output.o)
 *fill*         0x0000000040278ed0        0x0 
 .irom0.literal
                0x0000000040278ed0        0x0 ./build/sdklib/libnet80211.a(ieee80211_phy.o)
 *fill*         0x0000000040278ed0        0x0 
 .irom0.literal
                0x0000000040278ed0        0x0 ./build/sdklib/libnet80211.a(ieee80211_power.o)
 .irom0.literal
                0x0000000040278ed0        0x0 ./build/sdklib/libnet80211.a(ieee80211_proto.o)
 *fill*         0x0000000040278ed0        0x0 
 .irom0.literal
                0x0000000040278ed0        0x0 ./build/sdklib/libnet80211.a(ieee80211_scan.o)
 *fill*         0x0000000040278ed0        0x0 
 .irom0.literal
                0x0000000040278ed0        0x0 ./build/sdklib/libnet80211.a(ieee80211_sta.o)
 *fill*         0x0000000040278ed0        0x0 
 .irom0.literal
                0x0000000040278ed0        0x0 ./build/sdklib/libnet80211.a(wl_chm.o)
 *fill*         0x0000000040278ed0        0x0 
 .irom0.literal
                0x0000000040278ed0        0x0 ./build/sdklib/libnet80211.a(wl_cnx.o)
 *fill*         0x0000000040278ed0        0x0 
 .irom0.literal
                0x0000000040278ed0        0x0 ./build/sdklib/libnet80211.a(ieee80211_action.o)
 *fill*         0x0000000040278ed0        0x0 
 .irom0.literal
                0x0000000040278ed0        0x0 ./build/sdklib/libnet80211.a(ieee80211_ets.o)
 *fill*         0x0000000040278ed0        0x0 
 .irom0.literal
                0x0000000040278ed0        0x0 ./build/sdklib/libphy.a(phy.o)
 *fill*         0x0000000040278ed0        0x0 
 .irom0.literal
                0x0000000040278ed0        0x0 ./build/sdklib/libphy.a(phy_chip_v6_ana.o)
 *fill*         0x0000000040278ed0        0x0 
 .irom0.literal
                0x0000000040278ed0        0x0 ./build/sdklib/libphy.a(phy_chip_v6.o)
 *fill*         0x0000000040278ed0        0x0 
 .irom0.literal
                0x0000000040278ed0        0x0 ./build/sdklib/libphy.a(phy_chip_v6_cal.o)
 *fill*         0x0000000040278ed0        0x0 
 .irom0.literal
                0x0000000040278ed0        0x0 ./build/sdklib/libphy.a(phy_chip_v6_unused.o)
 *fill*         0x0000000040278ed0        0x0 
 .irom0.literal
                0x0000000040278ed0        0x0 ./build/sdklib/libphy.a(phy_sleep.o)
 *fill*         0x0000000040278ed0        0x0 
 .irom0.literal
                0x0000000040278ed0        0x0 ./build/sdklib/libphy.a(phy_chip_v5_romfunc.o)
 .irom0.literal
                0x0000000040278ed0        0x0 ./build/sdklib/libphy.a(phy_chip_v5_ana_romfunc.o)
 *fill*         0x0000000040278ed0        0x0 
 .irom0.literal
                0x0000000040278ed0        0x0 ./build/sdklib/libphy.a(phy_chip_v5_cal_romfunc.o)
 *fill*         0x0000000040278ed0        0x0 
 .irom0.literal
                0x0000000040278ed0        0x0 ./build/sdklib/libpp.a(esf_buf.o)
 *fill*         0x0000000040278ed0        0x0 
 .irom0.literal
                0x0000000040278ed0        0x0 ./build/sdklib/libpp.a(if_hwctrl.o)
 *fill*         0x0000000040278ed0        0x0 
 .irom0.literal
                0x0000000040278ed0        0x0 ./build/sdklib/libpp.a(lmac.o)
 *fill*         0x0000000040278ed0        0x0 
 .irom0.literal
                0x0000000040278ed0        0x0 ./build/sdklib/libpp.a(pm.o)
 *fill*         0x0000000040278ed0        0x0 
 .irom0.literal
                0x0000000040278ed0        0x0 ./build/sdklib/libpp.a(pp.o)
 *fill*         0x0000000040278ed0        0x0 
 .irom0.literal
                0x0000000040278ed0        0x0 ./build/sdklib/libpp.a(rate_control.o)
 *fill*         0x0000000040278ed0        0x0 
 .irom0.literal
                0x0000000040278ed0        0x0 ./build/sdklib/libpp.a(trc.o)
 *fill*         0x0000000040278ed0        0x0 
 .irom0.literal
                0x0000000040278ed0        0x0 ./build/sdklib/libpp.a(wdev.o)
 *fill*         0x0000000040278ed0        0x0 
 .irom0.literal
                0x0000000040278ed0        0x0 ./build/sdklib/libwpa.a(ap_config.o)
 *fill*         0x0000000040278ed0        0x0 
 .irom0.literal
                0x0000000040278ed0        0x0 ./build/sdklib/libwpa.a(common.o)
 .irom0.literal
                0x0000000040278ed0        0x0 ./build/sdklib/libwpa.a(os_xtensa.o)
 *fill*         0x0000000040278ed0        0x0 
 .irom0.literal
                0x0000000040278ed0        0x0 ./build/sdklib/libwpa.a(sha1-pbkdf2.o)
 *fill*         0x0000000040278ed0        0x0 
 .irom0.literal
                0x0000000040278ed0        0x0 ./build/sdklib/libwpa.a(wpa_auth.o)
 *fill*         0x0000000040278ed0        0x0 
 .irom0.literal
                0x0000000040278ed0        0x0 ./build/sdklib/libwpa.a(wpa_auth_ie.o)
 *fill*         0x0000000040278ed0        0x0 
 .irom0.literal
                0x0000000040278ed0        0x0 ./build/sdklib/libwpa.a(wpa.o)
 .irom0.literal
                0x0000000040278ed0        0x0 ./build/sdklib/libwpa.a(wpa_common.o)
 *fill*         0x0000000040278ed0        0x0 
 .irom0.literal
                0x0000000040278ed0        0x0 ./build/sdklib/libwpa.a(wpa_debug.o)
 .irom0.text    0x0000000040278ed0        0x8 ./build/sdklib/libwpa.a(wpa_debug.o)
                0x0000000040278ed0                sdk_eloop_cancel_timeout
                0x0000000040278ed4                sdk_eloop_register_timeout
 .irom0.literal
                0x0000000040278ed8        0x0 ./build/sdklib/libwpa.a(wpa_ie.o)
 *fill*         0x0000000040278ed8        0x0 
 .irom0.literal
                0x0000000040278ed8        0x0 ./build/sdklib/libwpa.a(wpa_main.o)
 *fill*         0x0000000040278ed8        0x0 
 .irom0.literal
                0x0000000040278ed8        0x0 ./build/sdklib/libwpa.a(wpas_glue.o)
 *fill*         0x0000000040278ed8        0x0 
 .irom0.literal
                0x0000000040278ed8        0x0 ./build/sdklib/libwpa.a(aes-unwrap.o)
 .irom0.literal
                0x0000000040278ed8        0x0 ./build/sdklib/libwpa.a(aes-wrap.o)
 *fill*         0x0000000040278ed8        0x0 
 .irom0.literal
                0x0000000040278ed8        0x0 ./build/sdklib/libwpa.a(md5.o)
 *fill*         0x0000000040278ed8        0x0 
 .irom0.literal
                0x0000000040278ed8        0x0 ./build/sdklib/libwpa.a(md5-internal.o)
 .irom0.literal
                0x0000000040278ed8        0x0 ./build/sdklib/libwpa.a(rc4.o)
 .irom0.text    0x0000000040278ed8       0xdb ./build/sdklib/libwpa.a(rc4.o)
                0x0000000040278ed8                sdk_rc4_skip
 *fill*         0x0000000040278fb3        0x1 
 .irom0.literal
                0x0000000040278fb4        0x0 ./build/sdklib/libwpa.a(sha1.o)
 *fill*         0x0000000040278fb4        0x0 
 .irom0.literal
                0x0000000040278fb4        0x0 ./build/sdklib/libwpa.a(sha1-internal.o)
 *fill*         0x0000000040278fb4        0x0 
 .irom0.literal
                0x0000000040278fb4        0x0 ./build/sdklib/libwpa.a(aes-internal-dec.o)
 *fill*         0x0000000040278fb4        0x0 
 .irom0.literal
                0x0000000040278fb4        0x0 ./build/sdklib/libwpa.a(aes-internal-enc.o)
 *fill*         0x0000000040278fb4        0x0 
 .irom0.literal
                0x0000000040278fb4        0x0 ./build/sdklib/libwpa.a(aes-internal.o)
 *fill*         0x0000000040278fb4        0xc 
 .irom.text     0x0000000040278fc0      0x900 ./build/sdklib/libwpa.a(aes-internal.o)
                0x0000000040278fc0                sdk_Te0
                0x00000000402793c0                sdk_Td0
                0x00000000402797c0                sdk_Td4s_rom
 .irom0.literal
                0x00000000402798c0        0x0 ./build/sdklib/libnet80211.a(ieee80211_crypto_ccmp.o)
 *fill*         0x00000000402798c0        0x0 
 .irom0.literal
                0x00000000402798c0        0x0 ./build/sdklib/libnet80211.a(ieee80211_crypto_tkip.o)
 *fill*         0x00000000402798c0        0x0 
 .irom0.literal
                0x00000000402798c0        0x0 ./build/sdklib/libnet80211.a(ieee80211_crypto_wep.o)
                0x00000000402798c0                _irom0_text_end = ABSOLUTE (.)

.lit4           0x0000000040107570        0x0
                0x0000000040107570                _lit4_start = ABSOLUTE (.)
 *(*.lit4)
 *(.lit4.*)
 *(.gnu.linkonce.lit4.*)
                0x0000000040107570                _lit4_end = ABSOLUTE (.)
                0x00000000400040c0                PROVIDE (SPI_sector_erase, 0x400040c0)
                0x0000000040004174                PROVIDE (SPI_page_program, 0x40004174)
                0x00000000400042ac                PROVIDE (SPI_read_data, 0x400042ac)
                0x00000000400043c8                PROVIDE (SPI_read_status, 0x400043c8)
                0x0000000040004400                PROVIDE (SPI_write_status, 0x40004400)
                0x000000004000443c                PROVIDE (SPI_write_enable, 0x4000443c)
                0x000000004000448c                PROVIDE (Wait_SPI_Idle, 0x4000448c)
                0x00000000400044c0                PROVIDE (Enable_QMode, 0x400044c0)
                0x0000000040004508                PROVIDE (Disable_QMode, 0x40004508)
                0x0000000040004678                PROVIDE (rom_Cache_Read_Enable, 0x40004678)
                0x00000000400047f0                PROVIDE (Cache_Read_Disable, 0x400047f0)
                0x0000000040004678                Cache_Read_Enable = rom_Cache_Read_Enable
                0x0000000040004f40                PROVIDE (lldesc_build_chain, 0x40004f40)
                0x0000000040005050                PROVIDE (lldesc_num2link, 0x40005050)
                0x000000004000507c                PROVIDE (lldesc_set_owner, 0x4000507c)
                0x000000004000c538                PROVIDE (__adddf3, 0x4000c538)
                0x000000004000c180                PROVIDE (__addsf3, 0x4000c180)
                0x000000004000cb94                PROVIDE (__divdf3, 0x4000cb94)
                0x000000004000ce60                PROVIDE (__divdi3, 0x4000ce60)
                0x000000004000dc88                PROVIDE (__divsi3, 0x4000dc88)
                0x000000004000cdfc                PROVIDE (__extendsfdf2, 0x4000cdfc)
                0x000000004000ccb8                PROVIDE (__fixdfsi, 0x4000ccb8)
                0x000000004000cd00                PROVIDE (__fixunsdfsi, 0x4000cd00)
                0x000000004000c4c4                PROVIDE (__fixunssfsi, 0x4000c4c4)
                0x000000004000e2f0                PROVIDE (__floatsidf, 0x4000e2f0)
                0x000000004000e2ac                PROVIDE (__floatsisf, 0x4000e2ac)
                0x000000004000e2e8                PROVIDE (__floatunsidf, 0x4000e2e8)
                0x000000004000e2a4                PROVIDE (__floatunsisf, 0x4000e2a4)
                0x000000004000c8f0                PROVIDE (__muldf3, 0x4000c8f0)
                0x0000000040000650                PROVIDE (__muldi3, 0x40000650)
                0x000000004000c3dc                PROVIDE (__mulsf3, 0x4000c3dc)
                0x000000004000c688                PROVIDE (__subdf3, 0x4000c688)
                0x000000004000c268                PROVIDE (__subsf3, 0x4000c268)
                0x000000004000cd5c                PROVIDE (__truncdfsf2, 0x4000cd5c)
                0x000000004000d310                PROVIDE (__udivdi3, 0x4000d310)
                0x000000004000e21c                PROVIDE (__udivsi3, 0x4000e21c)
                0x000000004000d770                PROVIDE (__umoddi3, 0x4000d770)
                0x000000004000e268                PROVIDE (__umodsi3, 0x4000e268)
                0x000000004000dcf0                PROVIDE (__umulsidi3, 0x4000dcf0)
                0x0000000040002ae8                PROVIDE (bzero, 0x40002ae8)
                0x00000000400018d4                PROVIDE (memcmp, 0x400018d4)
                0x00000000400018b4                PROVIDE (memcpy, 0x400018b4)
                0x00000000400018c4                PROVIDE (memmove, 0x400018c4)
                0x00000000400018a4                PROVIDE (memset, 0x400018a4)
                0x0000000040002aa8                PROVIDE (strcmp, 0x40002aa8)
                0x0000000040002a88                PROVIDE (strcpy, 0x40002a88)
                0x0000000040002ac8                PROVIDE (strlen, 0x40002ac8)
                0x0000000040002ab8                PROVIDE (strncmp, 0x40002ab8)
                0x0000000040002a98                PROVIDE (strncpy, 0x40002a98)
                0x0000000040002ad8                PROVIDE (strstr, 0x40002ad8)
                0x0000000040000f74                PROVIDE (ETS_INTR_LOCK, 0x40000f74)
                0x0000000040000f80                PROVIDE (ETS_INTR_UNLOCK, 0x40000f80)
OUTPUT(build/http_get_ssl.out elf32-xtensa-le)

.xtensa.info    0x0000000000000000       0x38
 .xtensa.info   0x0000000000000000       0x38 ./build/core.a(exception_vectors.o)
 .xtensa.info   0x0000000000000000        0x0 ./build/sdklib/libmain.a(app_main.o)
 .xtensa.info   0x0000000000000000        0x0 ./build/sdklib/libmain.a(ets_timer.o)
 .xtensa.info   0x0000000000000000        0x0 ./build/sdklib/libmain.a(misc.o)
 .xtensa.info   0x0000000000000000        0x0 ./build/sdklib/libmain.a(spi_flash.o)
 .xtensa.info   0x0000000000000000        0x0 ./build/sdklib/libmain.a(uart.o)
 .xtensa.info   0x0000000000000000        0x0 ./build/sdklib/libmain.a(user_interface.o)
 .xtensa.info   0x0000000000000000        0x0 ./build/sdklib/libmain.a(os_cpu_a.o)
 .xtensa.info   0x0000000000000000        0x0 ./build/sdklib/libmain.a(xtensa_context.o)
 .xtensa.info   0x0000000000000000        0x0 ./build/sdklib/libmain.a(timers.o)
 .xtensa.info   0x0000000000000000        0x0 ./build/sdklib/libnet80211.a(ieee80211.o)
 .xtensa.info   0x0000000000000000        0x0 ./build/sdklib/libnet80211.a(ieee80211_crypto.o)
 .xtensa.info   0x0000000000000000        0x0 ./build/sdklib/libnet80211.a(ieee80211_hostap.o)
 .xtensa.info   0x0000000000000000        0x0 ./build/sdklib/libnet80211.a(ieee80211_ht.o)
 .xtensa.info   0x0000000000000000        0x0 ./build/sdklib/libnet80211.a(ieee80211_input.o)
 .xtensa.info   0x0000000000000000        0x0 ./build/sdklib/libnet80211.a(ieee80211_output.o)
 .xtensa.info   0x0000000000000000        0x0 ./build/sdklib/libnet80211.a(ieee80211_phy.o)
 .xtensa.info   0x0000000000000000        0x0 ./build/sdklib/libnet80211.a(ieee80211_power.o)
 .xtensa.info   0x0000000000000000        0x0 ./build/sdklib/libnet80211.a(ieee80211_proto.o)
 .xtensa.info   0x0000000000000000        0x0 ./build/sdklib/libnet80211.a(ieee80211_scan.o)
 .xtensa.info   0x0000000000000000        0x0 ./build/sdklib/libnet80211.a(ieee80211_sta.o)
 .xtensa.info   0x0000000000000000        0x0 ./build/sdklib/libnet80211.a(wl_chm.o)
 .xtensa.info   0x0000000000000000        0x0 ./build/sdklib/libnet80211.a(wl_cnx.o)
 .xtensa.info   0x0000000000000000        0x0 ./build/sdklib/libnet80211.a(ieee80211_action.o)
 .xtensa.info   0x0000000000000000        0x0 ./build/sdklib/libnet80211.a(ieee80211_ets.o)
 .xtensa.info   0x0000000000000000        0x0 ./build/sdklib/libphy.a(phy.o)
 .xtensa.info   0x0000000000000000        0x0 ./build/sdklib/libphy.a(phy_chip_v6_ana.o)
 .xtensa.info   0x0000000000000000        0x0 ./build/sdklib/libphy.a(phy_chip_v6.o)
 .xtensa.info   0x0000000000000000        0x0 ./build/sdklib/libphy.a(phy_chip_v6_cal.o)
 .xtensa.info   0x0000000000000000        0x0 ./build/sdklib/libphy.a(phy_chip_v6_unused.o)
 .xtensa.info   0x0000000000000000        0x0 ./build/sdklib/libphy.a(phy_sleep.o)
 .xtensa.info   0x0000000000000000        0x0 ./build/sdklib/libphy.a(phy_chip_v5_romfunc.o)
 .xtensa.info   0x0000000000000000        0x0 ./build/sdklib/libphy.a(phy_chip_v5_ana_romfunc.o)
 .xtensa.info   0x0000000000000000        0x0 ./build/sdklib/libphy.a(phy_chip_v5_cal_romfunc.o)
 .xtensa.info   0x0000000000000000        0x0 ./build/sdklib/libpp.a(esf_buf.o)
 .xtensa.info   0x0000000000000000        0x0 ./build/sdklib/libpp.a(if_hwctrl.o)
 .xtensa.info   0x0000000000000000        0x0 ./build/sdklib/libpp.a(lmac.o)
 .xtensa.info   0x0000000000000000        0x0 ./build/sdklib/libpp.a(pm.o)
 .xtensa.info   0x0000000000000000        0x0 ./build/sdklib/libpp.a(pp.o)
 .xtensa.info   0x0000000000000000        0x0 ./build/sdklib/libpp.a(rate_control.o)
 .xtensa.info   0x0000000000000000        0x0 ./build/sdklib/libpp.a(trc.o)
 .xtensa.info   0x0000000000000000        0x0 ./build/sdklib/libpp.a(wdev.o)
 .xtensa.info   0x0000000000000000        0x0 ./build/sdklib/libwpa.a(ap_config.o)
 .xtensa.info   0x0000000000000000        0x0 ./build/sdklib/libwpa.a(common.o)
 .xtensa.info   0x0000000000000000        0x0 ./build/sdklib/libwpa.a(os_xtensa.o)
 .xtensa.info   0x0000000000000000        0x0 ./build/sdklib/libwpa.a(sha1-pbkdf2.o)
 .xtensa.info   0x0000000000000000        0x0 ./build/sdklib/libwpa.a(wpa_auth.o)
 .xtensa.info   0x0000000000000000        0x0 ./build/sdklib/libwpa.a(wpa_auth_ie.o)
 .xtensa.info   0x0000000000000000        0x0 ./build/sdklib/libwpa.a(wpa.o)
 .xtensa.info   0x0000000000000000        0x0 ./build/sdklib/libwpa.a(wpa_common.o)
 .xtensa.info   0x0000000000000000        0x0 ./build/sdklib/libwpa.a(wpa_debug.o)
 .xtensa.info   0x0000000000000000        0x0 ./build/sdklib/libwpa.a(wpa_ie.o)
 .xtensa.info   0x0000000000000000        0x0 ./build/sdklib/libwpa.a(wpa_main.o)
 .xtensa.info   0x0000000000000000        0x0 ./build/sdklib/libwpa.a(wpas_glue.o)
 .xtensa.info   0x0000000000000000        0x0 ./build/sdklib/libwpa.a(aes-unwrap.o)
 .xtensa.info   0x0000000000000000        0x0 ./build/sdklib/libwpa.a(aes-wrap.o)
 .xtensa.info   0x0000000000000000        0x0 ./build/sdklib/libwpa.a(md5.o)
 .xtensa.info   0x0000000000000000        0x0 ./build/sdklib/libwpa.a(md5-internal.o)
 .xtensa.info   0x0000000000000000        0x0 ./build/sdklib/libwpa.a(rc4.o)
 .xtensa.info   0x0000000000000000        0x0 ./build/sdklib/libwpa.a(sha1.o)
 .xtensa.info   0x0000000000000000        0x0 ./build/sdklib/libwpa.a(sha1-internal.o)
 .xtensa.info   0x0000000000000000        0x0 ./build/sdklib/libwpa.a(aes-internal-dec.o)
 .xtensa.info   0x0000000000000000        0x0 ./build/sdklib/libwpa.a(aes-internal-enc.o)
 .xtensa.info   0x0000000000000000        0x0 ./build/sdklib/libwpa.a(aes-internal.o)
 .xtensa.info   0x0000000000000000        0x0 ./build/program.a(http_get_ssl.o)
 .xtensa.info   0x0000000000000000        0x0 ./build/freertos.a(queue.o)
 .xtensa.info   0x0000000000000000        0x0 ./build/freertos.a(tasks.o)
 .xtensa.info   0x0000000000000000        0x0 ./build/freertos.a(timers.o)
 .xtensa.info   0x0000000000000000        0x0 ./build/freertos.a(port.o)
 .xtensa.info   0x0000000000000000        0x0 ./build/freertos.a(list.o)
 .xtensa.info   0x0000000000000000        0x0 ./build/lwip.a(esp_interface.o)
 .xtensa.info   0x0000000000000000        0x0 ./build/lwip.a(netdb.o)
 .xtensa.info   0x0000000000000000        0x0 ./build/lwip.a(sockets.o)
 .xtensa.info   0x0000000000000000        0x0 ./build/lwip.a(tcpip.o)
 .xtensa.info   0x0000000000000000        0x0 ./build/lwip.a(dhcp.o)
 .xtensa.info   0x0000000000000000        0x0 ./build/lwip.a(dns.o)
 .xtensa.info   0x0000000000000000        0x0 ./build/lwip.a(init.o)
 .xtensa.info   0x0000000000000000        0x0 ./build/lwip.a(memp.o)
 .xtensa.info   0x0000000000000000        0x0 ./build/lwip.a(netif.o)
 .xtensa.info   0x0000000000000000        0x0 ./build/lwip.a(pbuf.o)
 .xtensa.info   0x0000000000000000        0x0 ./build/lwip.a(stats.o)
 .xtensa.info   0x0000000000000000        0x0 ./build/lwip.a(tcp.o)
 .xtensa.info   0x0000000000000000        0x0 ./build/lwip.a(tcp_out.o)
 .xtensa.info   0x0000000000000000        0x0 ./build/lwip.a(timers.o)
 .xtensa.info   0x0000000000000000        0x0 ./build/lwip.a(udp.o)
 .xtensa.info   0x0000000000000000        0x0 ./build/lwip.a(icmp.o)
 .xtensa.info   0x0000000000000000        0x0 ./build/lwip.a(inet_chksum.o)
 .xtensa.info   0x0000000000000000        0x0 ./build/lwip.a(ip_addr.o)
 .xtensa.info   0x0000000000000000        0x0 ./build/lwip.a(ip.o)
 .xtensa.info   0x0000000000000000        0x0 ./build/lwip.a(ip_frag.o)
 .xtensa.info   0x0000000000000000        0x0 ./build/lwip.a(etharp.o)
 .xtensa.info   0x0000000000000000        0x0 ./build/lwip.a(sys_arch.o)
 .xtensa.info   0x0000000000000000        0x0 ./build/lwip.a(api_lib.o)
 .xtensa.info   0x0000000000000000        0x0 ./build/lwip.a(api_msg.o)
 .xtensa.info   0x0000000000000000        0x0 ./build/lwip.a(netbuf.o)
 .xtensa.info   0x0000000000000000        0x0 ./build/lwip.a(raw.o)
 .xtensa.info   0x0000000000000000        0x0 ./build/lwip.a(tcp_in.o)
 .xtensa.info   0x0000000000000000        0x0 ./build/axtls.a(tls1.o)
 .xtensa.info   0x0000000000000000        0x0 ./build/axtls.a(tls1_clnt.o)
 .xtensa.info   0x0000000000000000        0x0 ./build/axtls.a(tls1_svr.o)
 .xtensa.info   0x0000000000000000        0x0 ./build/axtls.a(x509.o)
 .xtensa.info   0x0000000000000000        0x0 ./build/axtls.a(axtls_esp_stubs.o)
 .xtensa.info   0x0000000000000000        0x0 ./build/axtls.a(aes.o)
 .xtensa.info   0x0000000000000000        0x0 ./build/axtls.a(bigint.o)
 .xtensa.info   0x0000000000000000        0x0 ./build/axtls.a(crypto_misc.o)
 .xtensa.info   0x0000000000000000        0x0 ./build/axtls.a(hmac.o)
 .xtensa.info   0x0000000000000000        0x0 ./build/axtls.a(md5.o)
 .xtensa.info   0x0000000000000000        0x0 ./build/axtls.a(rc4.o)
 .xtensa.info   0x0000000000000000        0x0 ./build/axtls.a(rsa.o)
 .xtensa.info   0x0000000000000000        0x0 ./build/axtls.a(sha1.o)
 .xtensa.info   0x0000000000000000        0x0 ./build/axtls.a(sha256.o)
 .xtensa.info   0x0000000000000000        0x0 ./build/axtls.a(sha384.o)
 .xtensa.info   0x0000000000000000        0x0 ./build/axtls.a(sha512.o)
 .xtensa.info   0x0000000000000000        0x0 ./build/axtls.a(asn1.o)
 .xtensa.info   0x0000000000000000        0x0 ./build/axtls.a(loader.o)
 .xtensa.info   0x0000000000000000        0x0 ./build/core.a(sdk_compat.o)
 .xtensa.info   0x0000000000000000        0x0 /root/ESP8266/esp-open-sdk/xtensa-lx106-elf/xtensa-lx106-elf/sysroot/usr/lib/libhal.a(clock.o)
 .xtensa.info   0x0000000000000000        0x0 /root/ESP8266/esp-open-sdk/xtensa-lx106-elf/xtensa-lx106-elf/sysroot/usr/lib/libhal.a(int_asm--set_intset.o)
 .xtensa.info   0x0000000000000000        0x0 /root/ESP8266/esp-open-sdk/xtensa-lx106-elf/lib/gcc/xtensa-lx106-elf/4.8.2/libgcc.a(_divsi3.o)
 .xtensa.info   0x0000000000000000        0x0 /root/ESP8266/esp-open-sdk/xtensa-lx106-elf/lib/gcc/xtensa-lx106-elf/4.8.2/libgcc.a(_modsi3.o)
 .xtensa.info   0x0000000000000000        0x0 /root/ESP8266/esp-open-sdk/xtensa-lx106-elf/lib/gcc/xtensa-lx106-elf/4.8.2/libgcc.a(_udivsi3.o)
 .xtensa.info   0x0000000000000000        0x0 /root/ESP8266/esp-open-sdk/xtensa-lx106-elf/lib/gcc/xtensa-lx106-elf/4.8.2/libgcc.a(_umodsi3.o)
 .xtensa.info   0x0000000000000000        0x0 /root/ESP8266/esp-open-sdk/xtensa-lx106-elf/lib/gcc/xtensa-lx106-elf/4.8.2/libgcc.a(_ashrdi3.o)
 .xtensa.info   0x0000000000000000        0x0 /root/ESP8266/esp-open-sdk/xtensa-lx106-elf/lib/gcc/xtensa-lx106-elf/4.8.2/libgcc.a(_addsubsf3.o)
 .xtensa.info   0x0000000000000000        0x0 /root/ESP8266/esp-open-sdk/xtensa-lx106-elf/lib/gcc/xtensa-lx106-elf/4.8.2/libgcc.a(_mulsf3.o)
 .xtensa.info   0x0000000000000000        0x0 /root/ESP8266/esp-open-sdk/xtensa-lx106-elf/lib/gcc/xtensa-lx106-elf/4.8.2/libgcc.a(_divsf3.o)
 .xtensa.info   0x0000000000000000        0x0 /root/ESP8266/esp-open-sdk/xtensa-lx106-elf/lib/gcc/xtensa-lx106-elf/4.8.2/libgcc.a(_fixsfsi.o)
 .xtensa.info   0x0000000000000000        0x0 /root/ESP8266/esp-open-sdk/xtensa-lx106-elf/lib/gcc/xtensa-lx106-elf/4.8.2/libgcc.a(_fixunssfsi.o)
 .xtensa.info   0x0000000000000000        0x0 /root/ESP8266/esp-open-sdk/xtensa-lx106-elf/lib/gcc/xtensa-lx106-elf/4.8.2/libgcc.a(_floatsisf.o)
 .xtensa.info   0x0000000000000000        0x0 /root/ESP8266/esp-open-sdk/xtensa-lx106-elf/lib/gcc/xtensa-lx106-elf/4.8.2/libgcc.a(_addsubdf3.o)
 .xtensa.info   0x0000000000000000        0x0 /root/ESP8266/esp-open-sdk/xtensa-lx106-elf/lib/gcc/xtensa-lx106-elf/4.8.2/libgcc.a(_muldf3.o)
 .xtensa.info   0x0000000000000000        0x0 /root/ESP8266/esp-open-sdk/xtensa-lx106-elf/lib/gcc/xtensa-lx106-elf/4.8.2/libgcc.a(_divdf3.o)
 .xtensa.info   0x0000000000000000        0x0 /root/ESP8266/esp-open-sdk/xtensa-lx106-elf/lib/gcc/xtensa-lx106-elf/4.8.2/libgcc.a(_fixdfsi.o)
 .xtensa.info   0x0000000000000000        0x0 /root/ESP8266/esp-open-sdk/xtensa-lx106-elf/lib/gcc/xtensa-lx106-elf/4.8.2/libgcc.a(_floatsidf.o)
 .xtensa.info   0x0000000000000000        0x0 /root/ESP8266/esp-open-sdk/xtensa-lx106-elf/lib/gcc/xtensa-lx106-elf/4.8.2/libgcc.a(_truncdfsf2.o)
 .xtensa.info   0x0000000000000000        0x0 /root/ESP8266/esp-open-sdk/xtensa-lx106-elf/lib/gcc/xtensa-lx106-elf/4.8.2/libgcc.a(_extendsfdf2.o)
 .xtensa.info   0x0000000000000000        0x0 /root/ESP8266/esp-open-sdk/xtensa-lx106-elf/lib/gcc/xtensa-lx106-elf/4.8.2/libgcc.a(_muldi3.o)
 .xtensa.info   0x0000000000000000        0x0 /root/ESP8266/esp-open-sdk/xtensa-lx106-elf/lib/gcc/xtensa-lx106-elf/4.8.2/libgcc.a(_popcountsi2.o)
 .xtensa.info   0x0000000000000000        0x0 /root/ESP8266/esp-open-sdk/xtensa-lx106-elf/lib/gcc/xtensa-lx106-elf/4.8.2/libgcc.a(_divdi3.o)
 .xtensa.info   0x0000000000000000        0x0 /root/ESP8266/esp-open-sdk/xtensa-lx106-elf/lib/gcc/xtensa-lx106-elf/4.8.2/libgcc.a(_udivdi3.o)
 .xtensa.info   0x0000000000000000        0x0 /root/ESP8266/esp-open-sdk/xtensa-lx106-elf/lib/gcc/xtensa-lx106-elf/4.8.2/libgcc.a(_umoddi3.o)
 .xtensa.info   0x0000000000000000        0x0 /root/ESP8266/esp-open-sdk/xtensa-lx106-elf/lib/gcc/xtensa-lx106-elf/4.8.2/libgcc.a(_umulsidi3.o)
 .xtensa.info   0x0000000000000000        0x0 /root/ESP8266/esp-open-sdk/xtensa-lx106-elf/lib/gcc/xtensa-lx106-elf/4.8.2/libgcc.a(_popcount_tab.o)
 .xtensa.info   0x0000000000000000        0x0 ../../libc/xtensa-lx106-elf/lib/libc.a(lib_a-atoi.o)
 .xtensa.info   0x0000000000000000        0x0 ../../libc/xtensa-lx106-elf/lib/libc.a(lib_a-bzero.o)
 .xtensa.info   0x0000000000000000        0x0 ../../libc/xtensa-lx106-elf/lib/libc.a(lib_a-calloc.o)
 .xtensa.info   0x0000000000000000        0x0 ../../libc/xtensa-lx106-elf/lib/libc.a(lib_a-errno.o)
 .xtensa.info   0x0000000000000000        0x0 ../../libc/xtensa-lx106-elf/lib/libc.a(lib_a-impure.o)
 .xtensa.info   0x0000000000000000        0x0 ../../libc/xtensa-lx106-elf/lib/libc.a(lib_a-malloc.o)
 .xtensa.info   0x0000000000000000        0x0 ../../libc/xtensa-lx106-elf/lib/libc.a(lib_a-memcmp.o)
 .xtensa.info   0x0000000000000000        0x0 ../../libc/xtensa-lx106-elf/lib/libc.a(lib_a-memcpy.o)
 .xtensa.info   0x0000000000000000        0x0 ../../libc/xtensa-lx106-elf/lib/libc.a(lib_a-memset.o)
 .xtensa.info   0x0000000000000000        0x0 ../../libc/xtensa-lx106-elf/lib/libc.a(lib_a-mstats.o)
 .xtensa.info   0x0000000000000000        0x0 ../../libc/xtensa-lx106-elf/lib/libc.a(lib_a-nano-callocr.o)
 .xtensa.info   0x0000000000000000        0x0 ../../libc/xtensa-lx106-elf/lib/libc.a(lib_a-nano-freer.o)
 .xtensa.info   0x0000000000000000        0x0 ../../libc/xtensa-lx106-elf/lib/libc.a(lib_a-nano-mallinfor.o)
 .xtensa.info   0x0000000000000000        0x0 ../../libc/xtensa-lx106-elf/lib/libc.a(lib_a-nano-mallocr.o)
 .xtensa.info   0x0000000000000000        0x0 ../../libc/xtensa-lx106-elf/lib/libc.a(lib_a-nano-malloptr.o)
 .xtensa.info   0x0000000000000000        0x0 ../../libc/xtensa-lx106-elf/lib/libc.a(lib_a-nano-mallstatsr.o)
 .xtensa.info   0x0000000000000000        0x0 ../../libc/xtensa-lx106-elf/lib/libc.a(lib_a-printf.o)
 .xtensa.info   0x0000000000000000        0x0 ../../libc/xtensa-lx106-elf/lib/libc.a(lib_a-putchar.o)
 .xtensa.info   0x0000000000000000        0x0 ../../libc/xtensa-lx106-elf/lib/libc.a(lib_a-putc.o)
 .xtensa.info   0x0000000000000000        0x0 ../../libc/xtensa-lx106-elf/lib/libc.a(lib_a-puts.o)
 .xtensa.info   0x0000000000000000        0x0 ../../libc/xtensa-lx106-elf/lib/libc.a(lib_a-rand.o)
 .xtensa.info   0x0000000000000000        0x0 ../../libc/xtensa-lx106-elf/lib/libc.a(lib_a-realloc.o)
 .xtensa.info   0x0000000000000000        0x0 ../../libc/xtensa-lx106-elf/lib/libc.a(lib_a-sprintf.o)
 .xtensa.info   0x0000000000000000        0x0 ../../libc/xtensa-lx106-elf/lib/libc.a(lib_a-strcmp.o)
 .xtensa.info   0x0000000000000000        0x0 ../../libc/xtensa-lx106-elf/lib/libc.a(lib_a-strcpy.o)
 .xtensa.info   0x0000000000000000        0x0 ../../libc/xtensa-lx106-elf/lib/libc.a(lib_a-strlen.o)
 .xtensa.info   0x0000000000000000        0x0 ../../libc/xtensa-lx106-elf/lib/libc.a(lib_a-strncmp.o)
 .xtensa.info   0x0000000000000000        0x0 ../../libc/xtensa-lx106-elf/lib/libc.a(lib_a-strncpy.o)
 .xtensa.info   0x0000000000000000        0x0 ../../libc/xtensa-lx106-elf/lib/libc.a(lib_a-strrchr.o)
 .xtensa.info   0x0000000000000000        0x0 ../../libc/xtensa-lx106-elf/lib/libc.a(lib_a-strtol.o)
 .xtensa.info   0x0000000000000000        0x0 ../../libc/xtensa-lx106-elf/lib/libc.a(lib_a-syssbrk.o)
 .xtensa.info   0x0000000000000000        0x0 ../../libc/xtensa-lx106-elf/lib/libc.a(lib_a-wbuf.o)
 .xtensa.info   0x0000000000000000        0x0 ../../libc/xtensa-lx106-elf/lib/libc.a(lib_a-wsetup.o)
 .xtensa.info   0x0000000000000000        0x0 ../../libc/xtensa-lx106-elf/lib/libc.a(lock.o)
 .xtensa.info   0x0000000000000000        0x0 ../../libc/xtensa-lx106-elf/lib/libc.a(lib_a-ctype_.o)
 .xtensa.info   0x0000000000000000        0x0 ../../libc/xtensa-lx106-elf/lib/libc.a(lib_a-fflush.o)
 .xtensa.info   0x0000000000000000        0x0 ../../libc/xtensa-lx106-elf/lib/libc.a(lib_a-findfp.o)
 .xtensa.info   0x0000000000000000        0x0 ../../libc/xtensa-lx106-elf/lib/libc.a(lib_a-fprintf.o)
 .xtensa.info   0x0000000000000000        0x0 ../../libc/xtensa-lx106-elf/lib/libc.a(lib_a-fvwrite.o)
 .xtensa.info   0x0000000000000000        0x0 ../../libc/xtensa-lx106-elf/lib/libc.a(lib_a-fwalk.o)
 .xtensa.info   0x0000000000000000        0x0 ../../libc/xtensa-lx106-elf/lib/libc.a(lib_a-makebuf.o)
 .xtensa.info   0x0000000000000000        0x0 ../../libc/xtensa-lx106-elf/lib/libc.a(lib_a-memchr.o)
 .xtensa.info   0x0000000000000000        0x0 ../../libc/xtensa-lx106-elf/lib/libc.a(lib_a-memmove.o)
 .xtensa.info   0x0000000000000000        0x0 ../../libc/xtensa-lx106-elf/lib/libc.a(lib_a-nano-reallocr.o)
 .xtensa.info   0x0000000000000000        0x0 ../../libc/xtensa-lx106-elf/lib/libc.a(lib_a-nano-svfprintf.o)
 .xtensa.info   0x0000000000000000        0x0 ../../libc/xtensa-lx106-elf/lib/libc.a(lib_a-nano-vfprintf_i.o)
 .xtensa.info   0x0000000000000000        0x0 ../../libc/xtensa-lx106-elf/lib/libc.a(lib_a-nano-vfprintf.o)
 .xtensa.info   0x0000000000000000        0x0 ../../libc/xtensa-lx106-elf/lib/libc.a(lib_a-stdio.o)
 .xtensa.info   0x0000000000000000        0x0 ../../libc/xtensa-lx106-elf/lib/libc.a(lib_a-strchr.o)
 .xtensa.info   0x0000000000000000        0x0 ../../libc/xtensa-lx106-elf/lib/libc.a(isatty.o)
 .xtensa.info   0x0000000000000000        0x0 ../../libc/xtensa-lx106-elf/lib/libc.a(lib_a-fclose.o)
 .xtensa.info   0x0000000000000000        0x0 ../../libc/xtensa-lx106-elf/lib/libc.a(lib_a-fputwc.o)
 .xtensa.info   0x0000000000000000        0x0 ../../libc/xtensa-lx106-elf/lib/libc.a(lib_a-locale.o)
 .xtensa.info   0x0000000000000000        0x0 ../../libc/xtensa-lx106-elf/lib/libc.a(lib_a-nano-msizer.o)
 .xtensa.info   0x0000000000000000        0x0 ../../libc/xtensa-lx106-elf/lib/libc.a(lib_a-wcrtomb.o)
 .xtensa.info   0x0000000000000000        0x0 ../../libc/xtensa-lx106-elf/lib/libc.a(lib_a-wctomb_r.o)
 .xtensa.info   0x0000000000000000        0x0 ./build/sdklib/libnet80211.a(ieee80211_crypto_ccmp.o)
 .xtensa.info   0x0000000000000000        0x0 ./build/sdklib/libnet80211.a(ieee80211_crypto_tkip.o)
 .xtensa.info   0x0000000000000000        0x0 ./build/sdklib/libnet80211.a(ieee80211_crypto_wep.o)
 .xtensa.info   0x0000000000000000        0x0 ./build/core.a(newlib_syscalls.o)

.comment        0x0000000000000000     0x124f
 .comment       0x0000000000000000       0x46 ./build/sdklib/libmain.a(app_main.o)
 .comment       0x0000000000000046       0x47 ./build/sdklib/libmain.a(ets_timer.o)
 .comment       0x000000000000008d       0x42 ./build/sdklib/libmain.a(misc.o)
 .comment       0x00000000000000cf       0x47 ./build/sdklib/libmain.a(spi_flash.o)
 .comment       0x0000000000000116       0x42 ./build/sdklib/libmain.a(uart.o)
 .comment       0x0000000000000158       0x4c ./build/sdklib/libmain.a(user_interface.o)
 .comment       0x00000000000001a4       0x44 ./build/sdklib/libmain.a(timers.o)
 .comment       0x00000000000001e8       0x47 ./build/sdklib/libnet80211.a(ieee80211.o)
 .comment       0x000000000000022f       0x4e ./build/sdklib/libnet80211.a(ieee80211_crypto.o)
 .comment       0x000000000000027d       0x4e ./build/sdklib/libnet80211.a(ieee80211_hostap.o)
 .comment       0x00000000000002cb       0x4a ./build/sdklib/libnet80211.a(ieee80211_ht.o)
 .comment       0x0000000000000315       0x4d ./build/sdklib/libnet80211.a(ieee80211_input.o)
 .comment       0x0000000000000362       0x4e ./build/sdklib/libnet80211.a(ieee80211_output.o)
 .comment       0x00000000000003b0       0x4b ./build/sdklib/libnet80211.a(ieee80211_phy.o)
 .comment       0x00000000000003fb       0x4d ./build/sdklib/libnet80211.a(ieee80211_power.o)
 .comment       0x0000000000000448       0x4d ./build/sdklib/libnet80211.a(ieee80211_proto.o)
 .comment       0x0000000000000495       0x4c ./build/sdklib/libnet80211.a(ieee80211_scan.o)
 .comment       0x00000000000004e1       0x4b ./build/sdklib/libnet80211.a(ieee80211_sta.o)
 .comment       0x000000000000052c       0x44 ./build/sdklib/libnet80211.a(wl_chm.o)
 .comment       0x0000000000000570       0x44 ./build/sdklib/libnet80211.a(wl_cnx.o)
 .comment       0x00000000000005b4       0x4e ./build/sdklib/libnet80211.a(ieee80211_action.o)
 .comment       0x0000000000000602       0x4b ./build/sdklib/libnet80211.a(ieee80211_ets.o)
 .comment       0x000000000000064d       0x41 ./build/sdklib/libphy.a(phy.o)
 .comment       0x000000000000068e       0x4d ./build/sdklib/libphy.a(phy_chip_v6_ana.o)
 .comment       0x00000000000006db       0x49 ./build/sdklib/libphy.a(phy_chip_v6.o)
 .comment       0x0000000000000724       0x4d ./build/sdklib/libphy.a(phy_chip_v6_cal.o)
 .comment       0x0000000000000771       0x50 ./build/sdklib/libphy.a(phy_chip_v6_unused.o)
 .comment       0x00000000000007c1       0x47 ./build/sdklib/libphy.a(phy_sleep.o)
 .comment       0x0000000000000808       0x51 ./build/sdklib/libphy.a(phy_chip_v5_romfunc.o)
 .comment       0x0000000000000859       0x55 ./build/sdklib/libphy.a(phy_chip_v5_ana_romfunc.o)
 .comment       0x00000000000008ae       0x55 ./build/sdklib/libphy.a(phy_chip_v5_cal_romfunc.o)
 .comment       0x0000000000000903       0x45 ./build/sdklib/libpp.a(esf_buf.o)
 .comment       0x0000000000000948       0x47 ./build/sdklib/libpp.a(if_hwctrl.o)
 .comment       0x000000000000098f       0x42 ./build/sdklib/libpp.a(lmac.o)
 .comment       0x00000000000009d1       0x40 ./build/sdklib/libpp.a(pm.o)
 .comment       0x0000000000000a11       0x40 ./build/sdklib/libpp.a(pp.o)
 .comment       0x0000000000000a51       0x4a ./build/sdklib/libpp.a(rate_control.o)
 .comment       0x0000000000000a9b       0x41 ./build/sdklib/libpp.a(trc.o)
 .comment       0x0000000000000adc       0x42 ./build/sdklib/libpp.a(wdev.o)
 .comment       0x0000000000000b1e       0x47 ./build/sdklib/libwpa.a(ap_config.o)
 .comment       0x0000000000000b65       0x44 ./build/sdklib/libwpa.a(common.o)
 .comment       0x0000000000000ba9       0x47 ./build/sdklib/libwpa.a(os_xtensa.o)
 .comment       0x0000000000000bf0       0x49 ./build/sdklib/libwpa.a(sha1-pbkdf2.o)
 .comment       0x0000000000000c39       0x46 ./build/sdklib/libwpa.a(wpa_auth.o)
 .comment       0x0000000000000c7f       0x49 ./build/sdklib/libwpa.a(wpa_auth_ie.o)
 .comment       0x0000000000000cc8       0x41 ./build/sdklib/libwpa.a(wpa.o)
 .comment       0x0000000000000d09       0x48 ./build/sdklib/libwpa.a(wpa_common.o)
 .comment       0x0000000000000d51       0x47 ./build/sdklib/libwpa.a(wpa_debug.o)
 .comment       0x0000000000000d98       0x44 ./build/sdklib/libwpa.a(wpa_ie.o)
 .comment       0x0000000000000ddc       0x46 ./build/sdklib/libwpa.a(wpa_main.o)
 .comment       0x0000000000000e22       0x47 ./build/sdklib/libwpa.a(wpas_glue.o)
 .comment       0x0000000000000e69       0x48 ./build/sdklib/libwpa.a(aes-unwrap.o)
 .comment       0x0000000000000eb1       0x46 ./build/sdklib/libwpa.a(aes-wrap.o)
 .comment       0x0000000000000ef7       0x41 ./build/sdklib/libwpa.a(md5.o)
 .comment       0x0000000000000f38       0x4a ./build/sdklib/libwpa.a(md5-internal.o)
 .comment       0x0000000000000f82       0x41 ./build/sdklib/libwpa.a(rc4.o)
 .comment       0x0000000000000fc3       0x42 ./build/sdklib/libwpa.a(sha1.o)
 .comment       0x0000000000001005       0x4b ./build/sdklib/libwpa.a(sha1-internal.o)
 .comment       0x0000000000001050       0x4e ./build/sdklib/libwpa.a(aes-internal-dec.o)
 .comment       0x000000000000109e       0x4e ./build/sdklib/libwpa.a(aes-internal-enc.o)
 .comment       0x00000000000010ec       0x4a ./build/sdklib/libwpa.a(aes-internal.o)
 .comment       0x0000000000001136       0x21 ./build/program.a(http_get_ssl.o)
                                         0x22 (size before relaxing)
 .comment       0x0000000000000000       0x22 ./build/freertos.a(queue.o)
 .comment       0x0000000000000000       0x22 ./build/freertos.a(tasks.o)
 .comment       0x0000000000000000       0x22 ./build/freertos.a(timers.o)
 .comment       0x0000000000000000       0x22 ./build/freertos.a(port.o)
 .comment       0x0000000000000000       0x22 ./build/freertos.a(list.o)
 .comment       0x0000000000000000       0x22 ./build/lwip.a(esp_interface.o)
 .comment       0x0000000000000000       0x22 ./build/lwip.a(netdb.o)
 .comment       0x0000000000000000       0x22 ./build/lwip.a(sockets.o)
 .comment       0x0000000000000000       0x22 ./build/lwip.a(tcpip.o)
 .comment       0x0000000000000000       0x22 ./build/lwip.a(dhcp.o)
 .comment       0x0000000000000000       0x22 ./build/lwip.a(dns.o)
 .comment       0x0000000000000000       0x22 ./build/lwip.a(init.o)
 .comment       0x0000000000000000       0x22 ./build/lwip.a(memp.o)
 .comment       0x0000000000000000       0x22 ./build/lwip.a(netif.o)
 .comment       0x0000000000000000       0x22 ./build/lwip.a(pbuf.o)
 .comment       0x0000000000000000       0x22 ./build/lwip.a(stats.o)
 .comment       0x0000000000000000       0x22 ./build/lwip.a(tcp.o)
 .comment       0x0000000000000000       0x22 ./build/lwip.a(tcp_out.o)
 .comment       0x0000000000000000       0x22 ./build/lwip.a(timers.o)
 .comment       0x0000000000000000       0x22 ./build/lwip.a(udp.o)
 .comment       0x0000000000000000       0x22 ./build/lwip.a(icmp.o)
 .comment       0x0000000000000000       0x22 ./build/lwip.a(inet_chksum.o)
 .comment       0x0000000000000000       0x22 ./build/lwip.a(ip_addr.o)
 .comment       0x0000000000000000       0x22 ./build/lwip.a(ip.o)
 .comment       0x0000000000000000       0x22 ./build/lwip.a(ip_frag.o)
 .comment       0x0000000000000000       0x22 ./build/lwip.a(etharp.o)
 .comment       0x0000000000000000       0x22 ./build/lwip.a(sys_arch.o)
 .comment       0x0000000000000000       0x22 ./build/lwip.a(api_lib.o)
 .comment       0x0000000000000000       0x22 ./build/lwip.a(api_msg.o)
 .comment       0x0000000000000000       0x22 ./build/lwip.a(netbuf.o)
 .comment       0x0000000000000000       0x22 ./build/lwip.a(raw.o)
 .comment       0x0000000000000000       0x22 ./build/lwip.a(tcp_in.o)
 .comment       0x0000000000000000       0x22 ./build/axtls.a(tls1.o)
 .comment       0x0000000000000000       0x22 ./build/axtls.a(tls1_clnt.o)
 .comment       0x0000000000000000       0x22 ./build/axtls.a(tls1_svr.o)
 .comment       0x0000000000000000       0x22 ./build/axtls.a(x509.o)
 .comment       0x0000000000000000       0x22 ./build/axtls.a(axtls_esp_stubs.o)
 .comment       0x0000000000000000       0x22 ./build/axtls.a(aes.o)
 .comment       0x0000000000000000       0x22 ./build/axtls.a(bigint.o)
 .comment       0x0000000000000000       0x22 ./build/axtls.a(crypto_misc.o)
 .comment       0x0000000000000000       0x22 ./build/axtls.a(hmac.o)
 .comment       0x0000000000000000       0x22 ./build/axtls.a(md5.o)
 .comment       0x0000000000000000       0x22 ./build/axtls.a(rc4.o)
 .comment       0x0000000000000000       0x22 ./build/axtls.a(rsa.o)
 .comment       0x0000000000000000       0x22 ./build/axtls.a(sha1.o)
 .comment       0x0000000000000000       0x22 ./build/axtls.a(sha256.o)
 .comment       0x0000000000000000       0x22 ./build/axtls.a(sha384.o)
 .comment       0x0000000000000000       0x22 ./build/axtls.a(sha512.o)
 .comment       0x0000000000000000       0x22 ./build/axtls.a(asn1.o)
 .comment       0x0000000000000000       0x22 ./build/axtls.a(loader.o)
 .comment       0x0000000000000000       0x22 ./build/core.a(sdk_compat.o)
 .comment       0x0000000000000000       0x22 /root/ESP8266/esp-open-sdk/xtensa-lx106-elf/lib/gcc/xtensa-lx106-elf/4.8.2/libgcc.a(_muldi3.o)
 .comment       0x0000000000000000       0x22 /root/ESP8266/esp-open-sdk/xtensa-lx106-elf/lib/gcc/xtensa-lx106-elf/4.8.2/libgcc.a(_popcountsi2.o)
 .comment       0x0000000000000000       0x22 /root/ESP8266/esp-open-sdk/xtensa-lx106-elf/lib/gcc/xtensa-lx106-elf/4.8.2/libgcc.a(_divdi3.o)
 .comment       0x0000000000000000       0x22 /root/ESP8266/esp-open-sdk/xtensa-lx106-elf/lib/gcc/xtensa-lx106-elf/4.8.2/libgcc.a(_udivdi3.o)
 .comment       0x0000000000000000       0x22 /root/ESP8266/esp-open-sdk/xtensa-lx106-elf/lib/gcc/xtensa-lx106-elf/4.8.2/libgcc.a(_umoddi3.o)
 .comment       0x0000000000000000       0x22 /root/ESP8266/esp-open-sdk/xtensa-lx106-elf/lib/gcc/xtensa-lx106-elf/4.8.2/libgcc.a(_popcount_tab.o)
 .comment       0x0000000000000000       0x22 ../../libc/xtensa-lx106-elf/lib/libc.a(lib_a-atoi.o)
 .comment       0x0000000000000000       0x22 ../../libc/xtensa-lx106-elf/lib/libc.a(lib_a-bzero.o)
 .comment       0x0000000000000000       0x22 ../../libc/xtensa-lx106-elf/lib/libc.a(lib_a-calloc.o)
 .comment       0x0000000000000000       0x22 ../../libc/xtensa-lx106-elf/lib/libc.a(lib_a-errno.o)
 .comment       0x0000000000000000       0x22 ../../libc/xtensa-lx106-elf/lib/libc.a(lib_a-impure.o)
 .comment       0x0000000000000000       0x22 ../../libc/xtensa-lx106-elf/lib/libc.a(lib_a-malloc.o)
 .comment       0x0000000000000000       0x22 ../../libc/xtensa-lx106-elf/lib/libc.a(lib_a-memcmp.o)
 .comment       0x0000000000000000       0x22 ../../libc/xtensa-lx106-elf/lib/libc.a(lib_a-mstats.o)
 .comment       0x0000000000000000       0x22 ../../libc/xtensa-lx106-elf/lib/libc.a(lib_a-nano-callocr.o)
 .comment       0x0000000000000000       0x22 ../../libc/xtensa-lx106-elf/lib/libc.a(lib_a-nano-freer.o)
 .comment       0x0000000000000000       0x22 ../../libc/xtensa-lx106-elf/lib/libc.a(lib_a-nano-mallinfor.o)
 .comment       0x0000000000000000       0x22 ../../libc/xtensa-lx106-elf/lib/libc.a(lib_a-nano-mallocr.o)
 .comment       0x0000000000000000       0x22 ../../libc/xtensa-lx106-elf/lib/libc.a(lib_a-nano-malloptr.o)
 .comment       0x0000000000000000       0x22 ../../libc/xtensa-lx106-elf/lib/libc.a(lib_a-nano-mallstatsr.o)
 .comment       0x0000000000000000       0x22 ../../libc/xtensa-lx106-elf/lib/libc.a(lib_a-printf.o)
 .comment       0x0000000000000000       0x22 ../../libc/xtensa-lx106-elf/lib/libc.a(lib_a-putchar.o)
 .comment       0x0000000000000000       0x22 ../../libc/xtensa-lx106-elf/lib/libc.a(lib_a-putc.o)
 .comment       0x0000000000000000       0x22 ../../libc/xtensa-lx106-elf/lib/libc.a(lib_a-puts.o)
 .comment       0x0000000000000000       0x22 ../../libc/xtensa-lx106-elf/lib/libc.a(lib_a-rand.o)
 .comment       0x0000000000000000       0x22 ../../libc/xtensa-lx106-elf/lib/libc.a(lib_a-realloc.o)
 .comment       0x0000000000000000       0x22 ../../libc/xtensa-lx106-elf/lib/libc.a(lib_a-sprintf.o)
 .comment       0x0000000000000000       0x22 ../../libc/xtensa-lx106-elf/lib/libc.a(lib_a-strncmp.o)
 .comment       0x0000000000000000       0x22 ../../libc/xtensa-lx106-elf/lib/libc.a(lib_a-strrchr.o)
 .comment       0x0000000000000000       0x22 ../../libc/xtensa-lx106-elf/lib/libc.a(lib_a-strtol.o)
 .comment       0x0000000000000000       0x22 ../../libc/xtensa-lx106-elf/lib/libc.a(lib_a-syssbrk.o)
 .comment       0x0000000000000000       0x22 ../../libc/xtensa-lx106-elf/lib/libc.a(lib_a-wbuf.o)
 .comment       0x0000000000000000       0x22 ../../libc/xtensa-lx106-elf/lib/libc.a(lib_a-wsetup.o)
 .comment       0x0000000000000000       0x22 ../../libc/xtensa-lx106-elf/lib/libc.a(lock.o)
 .comment       0x0000000000000000       0x22 ../../libc/xtensa-lx106-elf/lib/libc.a(lib_a-ctype_.o)
 .comment       0x0000000000000000       0x22 ../../libc/xtensa-lx106-elf/lib/libc.a(lib_a-fflush.o)
 .comment       0x0000000000000000       0x22 ../../libc/xtensa-lx106-elf/lib/libc.a(lib_a-findfp.o)
 .comment       0x0000000000000000       0x22 ../../libc/xtensa-lx106-elf/lib/libc.a(lib_a-fprintf.o)
 .comment       0x0000000000000000       0x22 ../../libc/xtensa-lx106-elf/lib/libc.a(lib_a-fvwrite.o)
 .comment       0x0000000000000000       0x22 ../../libc/xtensa-lx106-elf/lib/libc.a(lib_a-fwalk.o)
 .comment       0x0000000000000000       0x22 ../../libc/xtensa-lx106-elf/lib/libc.a(lib_a-makebuf.o)
 .comment       0x0000000000000000       0x22 ../../libc/xtensa-lx106-elf/lib/libc.a(lib_a-memchr.o)
 .comment       0x0000000000000000       0x22 ../../libc/xtensa-lx106-elf/lib/libc.a(lib_a-memmove.o)
 .comment       0x0000000000000000       0x22 ../../libc/xtensa-lx106-elf/lib/libc.a(lib_a-nano-reallocr.o)
 .comment       0x0000000000000000       0x22 ../../libc/xtensa-lx106-elf/lib/libc.a(lib_a-nano-svfprintf.o)
 .comment       0x0000000000000000       0x22 ../../libc/xtensa-lx106-elf/lib/libc.a(lib_a-nano-vfprintf_i.o)
 .comment       0x0000000000000000       0x22 ../../libc/xtensa-lx106-elf/lib/libc.a(lib_a-nano-vfprintf.o)
 .comment       0x0000000000000000       0x22 ../../libc/xtensa-lx106-elf/lib/libc.a(lib_a-stdio.o)
 .comment       0x0000000000000000       0x22 ../../libc/xtensa-lx106-elf/lib/libc.a(lib_a-strchr.o)
 .comment       0x0000000000000000       0x22 ../../libc/xtensa-lx106-elf/lib/libc.a(isatty.o)
 .comment       0x0000000000000000       0x22 ../../libc/xtensa-lx106-elf/lib/libc.a(lib_a-fclose.o)
 .comment       0x0000000000000000       0x22 ../../libc/xtensa-lx106-elf/lib/libc.a(lib_a-fputwc.o)
 .comment       0x0000000000000000       0x22 ../../libc/xtensa-lx106-elf/lib/libc.a(lib_a-locale.o)
 .comment       0x0000000000000000       0x22 ../../libc/xtensa-lx106-elf/lib/libc.a(lib_a-nano-msizer.o)
 .comment       0x0000000000000000       0x22 ../../libc/xtensa-lx106-elf/lib/libc.a(lib_a-wcrtomb.o)
 .comment       0x0000000000000000       0x22 ../../libc/xtensa-lx106-elf/lib/libc.a(lib_a-wctomb_r.o)
 .comment       0x0000000000001157       0x53 ./build/sdklib/libnet80211.a(ieee80211_crypto_ccmp.o)
 .comment       0x00000000000011aa       0x53 ./build/sdklib/libnet80211.a(ieee80211_crypto_tkip.o)
 .comment       0x00000000000011fd       0x52 ./build/sdklib/libnet80211.a(ieee80211_crypto_wep.o)
 .comment       0x0000000000000000       0x22 ./build/core.a(newlib_syscalls.o)

.xt.lit         0x0000000000000000     0x12a8
 .xt.lit        0x0000000000000000       0x88 ./build/sdklib/libmain.a(app_main.o)
                                         0x90 (size before relaxing)
 .xt.lit        0x0000000000000088       0x30 ./build/sdklib/libmain.a(ets_timer.o)
                                         0x60 (size before relaxing)
 .xt.lit        0x00000000000000b8       0x28 ./build/sdklib/libmain.a(misc.o)
                                         0x38 (size before relaxing)
 .xt.lit        0x00000000000000e0       0x38 ./build/sdklib/libmain.a(spi_flash.o)
                                         0x50 (size before relaxing)
 .xt.lit        0x0000000000000118        0x8 ./build/sdklib/libmain.a(uart.o)
 .xt.lit        0x0000000000000120      0x130 ./build/sdklib/libmain.a(user_interface.o)
                                        0x290 (size before relaxing)
 .xt.lit        0x0000000000000250        0x8 ./build/sdklib/libmain.a(os_cpu_a.o)
                                         0x10 (size before relaxing)
 .xt.lit        0x0000000000000258       0x18 ./build/sdklib/libmain.a(timers.o)
 .xt.lit        0x0000000000000270       0x20 ./build/sdklib/libnet80211.a(ieee80211.o)
                                         0x30 (size before relaxing)
 .xt.lit        0x0000000000000290        0x0 ./build/sdklib/libnet80211.a(ieee80211_crypto.o)
                                         0x10 (size before relaxing)
 .xt.lit        0x0000000000000290       0x50 ./build/sdklib/libnet80211.a(ieee80211_hostap.o)
                                         0x70 (size before relaxing)
 .xt.lit        0x00000000000002e0       0x48 ./build/sdklib/libnet80211.a(ieee80211_ht.o)
                                         0x68 (size before relaxing)
 .xt.lit        0x0000000000000328       0x20 ./build/sdklib/libnet80211.a(ieee80211_input.o)
                                         0x58 (size before relaxing)
 .xt.lit        0x0000000000000348       0x38 ./build/sdklib/libnet80211.a(ieee80211_output.o)
                                         0x80 (size before relaxing)
 .xt.lit        0x0000000000000380       0x10 ./build/sdklib/libnet80211.a(ieee80211_phy.o)
                                         0x38 (size before relaxing)
 .xt.lit        0x0000000000000390        0x8 ./build/sdklib/libnet80211.a(ieee80211_power.o)
                                         0x18 (size before relaxing)
 .xt.lit        0x0000000000000398       0x18 ./build/sdklib/libnet80211.a(ieee80211_proto.o)
                                         0x20 (size before relaxing)
 .xt.lit        0x00000000000003b0       0x40 ./build/sdklib/libnet80211.a(ieee80211_scan.o)
                                         0xd8 (size before relaxing)
 .xt.lit        0x00000000000003f0        0x8 ./build/sdklib/libnet80211.a(ieee80211_sta.o)
                                         0x50 (size before relaxing)
 .xt.lit        0x00000000000003f8       0x20 ./build/sdklib/libnet80211.a(wl_chm.o)
                                         0x60 (size before relaxing)
 .xt.lit        0x0000000000000418       0x90 ./build/sdklib/libnet80211.a(wl_cnx.o)
                                         0xf0 (size before relaxing)
 .xt.lit        0x00000000000004a8       0x20 ./build/sdklib/libnet80211.a(ieee80211_action.o)
                                         0x30 (size before relaxing)
 .xt.lit        0x00000000000004c8        0x0 ./build/sdklib/libnet80211.a(ieee80211_ets.o)
                                          0x8 (size before relaxing)
 .xt.lit        0x00000000000004c8       0x10 ./build/sdklib/libphy.a(phy.o)
                                         0x60 (size before relaxing)
 .xt.lit        0x00000000000004d8       0x88 ./build/sdklib/libphy.a(phy_chip_v6_ana.o)
                                         0xb0 (size before relaxing)
 .xt.lit        0x0000000000000560       0xf0 ./build/sdklib/libphy.a(phy_chip_v6.o)
                                        0x188 (size before relaxing)
 .xt.lit        0x0000000000000650       0x70 ./build/sdklib/libphy.a(phy_chip_v6_cal.o)
                                         0xe0 (size before relaxing)
 .xt.lit        0x00000000000006c0       0x20 ./build/sdklib/libphy.a(phy_chip_v6_unused.o)
                                         0x28 (size before relaxing)
 .xt.lit        0x00000000000006e0       0x70 ./build/sdklib/libphy.a(phy_sleep.o)
                                         0xd0 (size before relaxing)
 .xt.lit        0x0000000000000750       0x38 ./build/sdklib/libphy.a(phy_chip_v5_romfunc.o)
                                         0xd8 (size before relaxing)
 .xt.lit        0x0000000000000788       0x30 ./build/sdklib/libphy.a(phy_chip_v5_ana_romfunc.o)
                                         0xd8 (size before relaxing)
 .xt.lit        0x00000000000007b8       0x30 ./build/sdklib/libphy.a(phy_chip_v5_cal_romfunc.o)
                                         0x58 (size before relaxing)
 .xt.lit        0x00000000000007e8       0x18 ./build/sdklib/libpp.a(esf_buf.o)
                                         0x20 (size before relaxing)
 .xt.lit        0x0000000000000800       0x30 ./build/sdklib/libpp.a(if_hwctrl.o)
                                         0x90 (size before relaxing)
 .xt.lit        0x0000000000000830       0x58 ./build/sdklib/libpp.a(lmac.o)
                                        0x108 (size before relaxing)
 .xt.lit        0x0000000000000888       0xe8 ./build/sdklib/libpp.a(pm.o)
                                        0x170 (size before relaxing)
 .xt.lit        0x0000000000000970       0xd0 ./build/sdklib/libpp.a(pp.o)
                                        0x190 (size before relaxing)
 .xt.lit        0x0000000000000a40       0x18 ./build/sdklib/libpp.a(rate_control.o)
                                         0x38 (size before relaxing)
 .xt.lit        0x0000000000000a58       0x58 ./build/sdklib/libpp.a(trc.o)
                                         0x90 (size before relaxing)
 .xt.lit        0x0000000000000ab0       0xe8 ./build/sdklib/libpp.a(wdev.o)
                                        0x198 (size before relaxing)
 .xt.lit        0x0000000000000b98        0x8 ./build/sdklib/libwpa.a(ap_config.o)
                                         0x40 (size before relaxing)
 .xt.lit        0x0000000000000ba0        0x8 ./build/sdklib/libwpa.a(common.o)
                                         0x10 (size before relaxing)
 .xt.lit        0x0000000000000ba8        0x0 ./build/sdklib/libwpa.a(os_xtensa.o)
                                         0x10 (size before relaxing)
 .xt.lit        0x0000000000000ba8        0x0 ./build/sdklib/libwpa.a(sha1-pbkdf2.o)
                                         0x10 (size before relaxing)
 .xt.lit        0x0000000000000ba8       0x70 ./build/sdklib/libwpa.a(wpa_auth.o)
                                        0x100 (size before relaxing)
 .xt.lit        0x0000000000000c18        0x8 ./build/sdklib/libwpa.a(wpa_auth_ie.o)
                                         0x38 (size before relaxing)
 .xt.lit        0x0000000000000c20       0x40 ./build/sdklib/libwpa.a(wpa.o)
                                        0x110 (size before relaxing)
 .xt.lit        0x0000000000000c60       0x20 ./build/sdklib/libwpa.a(wpa_common.o)
                                         0x58 (size before relaxing)
 .xt.lit        0x0000000000000c80        0x0 ./build/sdklib/libwpa.a(wpa_ie.o)
                                         0x18 (size before relaxing)
 .xt.lit        0x0000000000000c80       0x10 ./build/sdklib/libwpa.a(wpa_main.o)
                                         0x48 (size before relaxing)
 .xt.lit        0x0000000000000c90        0x0 ./build/sdklib/libwpa.a(wpas_glue.o)
                                         0x10 (size before relaxing)
 .xt.lit        0x0000000000000c90        0x0 ./build/sdklib/libwpa.a(aes-unwrap.o)
                                          0x8 (size before relaxing)
 .xt.lit        0x0000000000000c90        0x0 ./build/sdklib/libwpa.a(aes-wrap.o)
                                          0x8 (size before relaxing)
 .xt.lit        0x0000000000000c90        0x0 ./build/sdklib/libwpa.a(md5.o)
                                          0x8 (size before relaxing)
 .xt.lit        0x0000000000000c90        0x0 ./build/sdklib/libwpa.a(md5-internal.o)
                                         0x20 (size before relaxing)
 .xt.lit        0x0000000000000c90        0x0 ./build/sdklib/libwpa.a(sha1.o)
                                         0x10 (size before relaxing)
 .xt.lit        0x0000000000000c90       0x10 ./build/sdklib/libwpa.a(sha1-internal.o)
                                         0x20 (size before relaxing)
 .xt.lit        0x0000000000000ca0       0x18 ./build/sdklib/libwpa.a(aes-internal-dec.o)
                                         0x20 (size before relaxing)
 .xt.lit        0x0000000000000cb8        0x0 ./build/sdklib/libwpa.a(aes-internal-enc.o)
                                         0x18 (size before relaxing)
 .xt.lit        0x0000000000000cb8        0x8 ./build/sdklib/libwpa.a(aes-internal.o)
 .xt.lit        0x0000000000000cc0       0x10 ./build/program.a(http_get_ssl.o)
 .xt.lit        0x0000000000000cd0       0x30 ./build/freertos.a(queue.o)
                                         0x68 (size before relaxing)
 .xt.lit        0x0000000000000d00       0x60 ./build/freertos.a(tasks.o)
                                        0x110 (size before relaxing)
 .xt.lit        0x0000000000000d60       0x20 ./build/freertos.a(timers.o)
                                         0x48 (size before relaxing)
 .xt.lit        0x0000000000000d80       0x30 ./build/freertos.a(port.o)
                                         0x50 (size before relaxing)
 .xt.lit        0x0000000000000db0       0x18 ./build/lwip.a(esp_interface.o)
 .xt.lit        0x0000000000000dc8       0x18 ./build/lwip.a(netdb.o)
                                         0x20 (size before relaxing)
 .xt.lit        0x0000000000000de0       0x48 ./build/lwip.a(sockets.o)
                                         0xa8 (size before relaxing)
 .xt.lit        0x0000000000000e28       0x18 ./build/lwip.a(tcpip.o)
                                         0x68 (size before relaxing)
 .xt.lit        0x0000000000000e40       0x38 ./build/lwip.a(dhcp.o)
                                         0xa0 (size before relaxing)
 .xt.lit        0x0000000000000e78       0x20 ./build/lwip.a(dns.o)
                                         0x40 (size before relaxing)
 .xt.lit        0x0000000000000e98        0x0 ./build/lwip.a(init.o)
                                          0x8 (size before relaxing)
 .xt.lit        0x0000000000000e98       0x18 ./build/lwip.a(netif.o)
                                         0x40 (size before relaxing)
 .xt.lit        0x0000000000000eb0        0x8 ./build/lwip.a(pbuf.o)
                                         0x48 (size before relaxing)
 .xt.lit        0x0000000000000eb8       0x58 ./build/lwip.a(tcp.o)
                                         0xb0 (size before relaxing)
 .xt.lit        0x0000000000000f10       0x10 ./build/lwip.a(tcp_out.o)
                                         0x50 (size before relaxing)
 .xt.lit        0x0000000000000f20       0x18 ./build/lwip.a(timers.o)
                                         0x50 (size before relaxing)
 .xt.lit        0x0000000000000f38       0x10 ./build/lwip.a(udp.o)
                                         0x38 (size before relaxing)
 .xt.lit        0x0000000000000f48        0x0 ./build/lwip.a(icmp.o)
                                         0x10 (size before relaxing)
 .xt.lit        0x0000000000000f48        0x0 ./build/lwip.a(inet_chksum.o)
                                          0x8 (size before relaxing)
 .xt.lit        0x0000000000000f48       0x18 ./build/lwip.a(ip_addr.o)
                                         0x20 (size before relaxing)
 .xt.lit        0x0000000000000f60       0x10 ./build/lwip.a(ip.o)
                                         0x20 (size before relaxing)
 .xt.lit        0x0000000000000f70        0x8 ./build/lwip.a(ip_frag.o)
 .xt.lit        0x0000000000000f78       0x20 ./build/lwip.a(etharp.o)
                                         0x58 (size before relaxing)
 .xt.lit        0x0000000000000f98        0x8 ./build/lwip.a(sys_arch.o)
                                         0x90 (size before relaxing)
 .xt.lit        0x0000000000000fa0       0x60 ./build/lwip.a(api_lib.o)
                                         0x78 (size before relaxing)
 .xt.lit        0x0000000000001000       0x30 ./build/lwip.a(api_msg.o)
                                         0xd8 (size before relaxing)
 .xt.lit        0x0000000000001030        0x0 ./build/lwip.a(netbuf.o)
                                         0x30 (size before relaxing)
 .xt.lit        0x0000000000001030        0x8 ./build/lwip.a(raw.o)
                                         0x20 (size before relaxing)
 .xt.lit        0x0000000000001038       0x10 ./build/lwip.a(tcp_in.o)
                                         0x18 (size before relaxing)
 .xt.lit        0x0000000000001048       0x68 ./build/axtls.a(tls1.o)
                                         0xf8 (size before relaxing)
 .xt.lit        0x00000000000010b0       0x10 ./build/axtls.a(tls1_clnt.o)
                                         0x20 (size before relaxing)
 .xt.lit        0x00000000000010c0        0x8 ./build/axtls.a(tls1_svr.o)
                                         0x18 (size before relaxing)
 .xt.lit        0x00000000000010c8        0x8 ./build/axtls.a(x509.o)
                                         0x20 (size before relaxing)
 .xt.lit        0x00000000000010d0        0x8 ./build/axtls.a(axtls_esp_stubs.o)
 .xt.lit        0x00000000000010d8       0x18 ./build/axtls.a(aes.o)
                                         0x20 (size before relaxing)
 .xt.lit        0x00000000000010f0       0x20 ./build/axtls.a(bigint.o)
                                         0xa8 (size before relaxing)
 .xt.lit        0x0000000000001110       0x10 ./build/axtls.a(crypto_misc.o)
                                         0x20 (size before relaxing)
 .xt.lit        0x0000000000001120        0x0 ./build/axtls.a(hmac.o)
                                         0x10 (size before relaxing)
 .xt.lit        0x0000000000001120       0x18 ./build/axtls.a(md5.o)
                                         0x20 (size before relaxing)
 .xt.lit        0x0000000000001138        0x0 ./build/axtls.a(rsa.o)
                                         0x38 (size before relaxing)
 .xt.lit        0x0000000000001138       0x10 ./build/axtls.a(sha1.o)
                                         0x18 (size before relaxing)
 .xt.lit        0x0000000000001148       0x18 ./build/axtls.a(sha256.o)
                                         0x20 (size before relaxing)
 .xt.lit        0x0000000000001160        0x8 ./build/axtls.a(sha384.o)
                                         0x18 (size before relaxing)
 .xt.lit        0x0000000000001168       0x18 ./build/axtls.a(sha512.o)
                                         0x20 (size before relaxing)
 .xt.lit        0x0000000000001180       0x10 ./build/axtls.a(asn1.o)
                                         0x58 (size before relaxing)
 .xt.lit        0x0000000000001190        0x8 ./build/axtls.a(loader.o)
                                         0x18 (size before relaxing)
 .xt.lit        0x0000000000001198       0x10 ./build/core.a(sdk_compat.o)
 .xt.lit        0x00000000000011a8        0x8 /root/ESP8266/esp-open-sdk/xtensa-lx106-elf/lib/gcc/xtensa-lx106-elf/4.8.2/libgcc.a(_addsubsf3.o)
 .xt.lit        0x00000000000011b0        0x0 /root/ESP8266/esp-open-sdk/xtensa-lx106-elf/lib/gcc/xtensa-lx106-elf/4.8.2/libgcc.a(_mulsf3.o)
                                          0x8 (size before relaxing)
 .xt.lit        0x00000000000011b0        0x0 /root/ESP8266/esp-open-sdk/xtensa-lx106-elf/lib/gcc/xtensa-lx106-elf/4.8.2/libgcc.a(_divsf3.o)
                                          0x8 (size before relaxing)
 .xt.lit        0x00000000000011b0        0x0 /root/ESP8266/esp-open-sdk/xtensa-lx106-elf/lib/gcc/xtensa-lx106-elf/4.8.2/libgcc.a(_fixsfsi.o)
                                          0x8 (size before relaxing)
 .xt.lit        0x00000000000011b0        0x0 /root/ESP8266/esp-open-sdk/xtensa-lx106-elf/lib/gcc/xtensa-lx106-elf/4.8.2/libgcc.a(_fixunssfsi.o)
                                          0x8 (size before relaxing)
 .xt.lit        0x00000000000011b0        0x8 /root/ESP8266/esp-open-sdk/xtensa-lx106-elf/lib/gcc/xtensa-lx106-elf/4.8.2/libgcc.a(_addsubdf3.o)
 .xt.lit        0x00000000000011b8        0x8 /root/ESP8266/esp-open-sdk/xtensa-lx106-elf/lib/gcc/xtensa-lx106-elf/4.8.2/libgcc.a(_muldf3.o)
 .xt.lit        0x00000000000011c0        0x0 /root/ESP8266/esp-open-sdk/xtensa-lx106-elf/lib/gcc/xtensa-lx106-elf/4.8.2/libgcc.a(_divdf3.o)
                                          0x8 (size before relaxing)
 .xt.lit        0x00000000000011c0        0x0 /root/ESP8266/esp-open-sdk/xtensa-lx106-elf/lib/gcc/xtensa-lx106-elf/4.8.2/libgcc.a(_fixdfsi.o)
                                          0x8 (size before relaxing)
 .xt.lit        0x00000000000011c0        0x8 /root/ESP8266/esp-open-sdk/xtensa-lx106-elf/lib/gcc/xtensa-lx106-elf/4.8.2/libgcc.a(_truncdfsf2.o)
 .xt.lit        0x00000000000011c8        0x0 /root/ESP8266/esp-open-sdk/xtensa-lx106-elf/lib/gcc/xtensa-lx106-elf/4.8.2/libgcc.a(_extendsfdf2.o)
                                          0x8 (size before relaxing)
 .xt.lit        0x00000000000011c8        0x0 /root/ESP8266/esp-open-sdk/xtensa-lx106-elf/lib/gcc/xtensa-lx106-elf/4.8.2/libgcc.a(_muldi3.o)
                                          0x8 (size before relaxing)
 .xt.lit        0x00000000000011c8        0x8 /root/ESP8266/esp-open-sdk/xtensa-lx106-elf/lib/gcc/xtensa-lx106-elf/4.8.2/libgcc.a(_popcountsi2.o)
 .xt.lit        0x00000000000011d0        0x0 /root/ESP8266/esp-open-sdk/xtensa-lx106-elf/lib/gcc/xtensa-lx106-elf/4.8.2/libgcc.a(_divdi3.o)
                                          0x8 (size before relaxing)
 .xt.lit        0x00000000000011d0        0x0 /root/ESP8266/esp-open-sdk/xtensa-lx106-elf/lib/gcc/xtensa-lx106-elf/4.8.2/libgcc.a(_udivdi3.o)
                                          0x8 (size before relaxing)
 .xt.lit        0x00000000000011d0        0x0 /root/ESP8266/esp-open-sdk/xtensa-lx106-elf/lib/gcc/xtensa-lx106-elf/4.8.2/libgcc.a(_umoddi3.o)
                                          0x8 (size before relaxing)
 .xt.lit        0x00000000000011d0        0x0 ../../libc/xtensa-lx106-elf/lib/libc.a(lib_a-atoi.o)
                                          0x8 (size before relaxing)
 .xt.lit        0x00000000000011d0        0x8 ../../libc/xtensa-lx106-elf/lib/libc.a(lib_a-calloc.o)
 .xt.lit        0x00000000000011d8        0x0 ../../libc/xtensa-lx106-elf/lib/libc.a(lib_a-errno.o)
                                          0x8 (size before relaxing)
 .xt.lit        0x00000000000011d8        0x8 ../../libc/xtensa-lx106-elf/lib/libc.a(lib_a-malloc.o)
 .xt.lit        0x00000000000011e0        0x8 ../../libc/xtensa-lx106-elf/lib/libc.a(lib_a-mstats.o)
 .xt.lit        0x00000000000011e8        0x8 ../../libc/xtensa-lx106-elf/lib/libc.a(lib_a-nano-callocr.o)
 .xt.lit        0x00000000000011f0        0x0 ../../libc/xtensa-lx106-elf/lib/libc.a(lib_a-nano-freer.o)
                                          0x8 (size before relaxing)
 .xt.lit        0x00000000000011f0        0x8 ../../libc/xtensa-lx106-elf/lib/libc.a(lib_a-nano-mallinfor.o)
 .xt.lit        0x00000000000011f8        0x8 ../../libc/xtensa-lx106-elf/lib/libc.a(lib_a-nano-mallocr.o)
 .xt.lit        0x0000000000001200        0x8 ../../libc/xtensa-lx106-elf/lib/libc.a(lib_a-nano-mallstatsr.o)
 .xt.lit        0x0000000000001208        0x0 ../../libc/xtensa-lx106-elf/lib/libc.a(lib_a-printf.o)
                                          0x8 (size before relaxing)
 .xt.lit        0x0000000000001208        0x0 ../../libc/xtensa-lx106-elf/lib/libc.a(lib_a-putchar.o)
                                          0x8 (size before relaxing)
 .xt.lit        0x0000000000001208        0x8 ../../libc/xtensa-lx106-elf/lib/libc.a(lib_a-putc.o)
 .xt.lit        0x0000000000001210        0x8 ../../libc/xtensa-lx106-elf/lib/libc.a(lib_a-puts.o)
 .xt.lit        0x0000000000001218        0x8 ../../libc/xtensa-lx106-elf/lib/libc.a(lib_a-rand.o)
 .xt.lit        0x0000000000001220        0x0 ../../libc/xtensa-lx106-elf/lib/libc.a(lib_a-realloc.o)
                                          0x8 (size before relaxing)
 .xt.lit        0x0000000000001220        0x0 ../../libc/xtensa-lx106-elf/lib/libc.a(lib_a-sprintf.o)
                                          0x8 (size before relaxing)
 .xt.lit        0x0000000000001220        0x8 ../../libc/xtensa-lx106-elf/lib/libc.a(lib_a-strcmp.o)
 .xt.lit        0x0000000000001228        0x0 ../../libc/xtensa-lx106-elf/lib/libc.a(lib_a-strcpy.o)
                                          0x8 (size before relaxing)
 .xt.lit        0x0000000000001228        0x0 ../../libc/xtensa-lx106-elf/lib/libc.a(lib_a-strlen.o)
                                          0x8 (size before relaxing)
 .xt.lit        0x0000000000001228        0x0 ../../libc/xtensa-lx106-elf/lib/libc.a(lib_a-strncpy.o)
                                          0x8 (size before relaxing)
 .xt.lit        0x0000000000001228        0x0 ../../libc/xtensa-lx106-elf/lib/libc.a(lib_a-strrchr.o)
                                          0x8 (size before relaxing)
 .xt.lit        0x0000000000001228        0x8 ../../libc/xtensa-lx106-elf/lib/libc.a(lib_a-strtol.o)
 .xt.lit        0x0000000000001230        0x0 ../../libc/xtensa-lx106-elf/lib/libc.a(lib_a-syssbrk.o)
                                          0x8 (size before relaxing)
 .xt.lit        0x0000000000001230        0x0 ../../libc/xtensa-lx106-elf/lib/libc.a(lib_a-wbuf.o)
                                          0x8 (size before relaxing)
 .xt.lit        0x0000000000001230        0x8 ../../libc/xtensa-lx106-elf/lib/libc.a(lib_a-wsetup.o)
 .xt.lit        0x0000000000001238        0x8 ../../libc/xtensa-lx106-elf/lib/libc.a(lib_a-fflush.o)
 .xt.lit        0x0000000000001240        0x8 ../../libc/xtensa-lx106-elf/lib/libc.a(lib_a-findfp.o)
 .xt.lit        0x0000000000001248        0x0 ../../libc/xtensa-lx106-elf/lib/libc.a(lib_a-fprintf.o)
                                          0x8 (size before relaxing)
 .xt.lit        0x0000000000001248        0x8 ../../libc/xtensa-lx106-elf/lib/libc.a(lib_a-fvwrite.o)
 .xt.lit        0x0000000000001250        0x8 ../../libc/xtensa-lx106-elf/lib/libc.a(lib_a-makebuf.o)
 .xt.lit        0x0000000000001258        0x0 ../../libc/xtensa-lx106-elf/lib/libc.a(lib_a-nano-reallocr.o)
                                          0x8 (size before relaxing)
 .xt.lit        0x0000000000001258        0x8 ../../libc/xtensa-lx106-elf/lib/libc.a(lib_a-nano-svfprintf.o)
 .xt.lit        0x0000000000001260        0x8 ../../libc/xtensa-lx106-elf/lib/libc.a(lib_a-nano-vfprintf_i.o)
 .xt.lit        0x0000000000001268        0x8 ../../libc/xtensa-lx106-elf/lib/libc.a(lib_a-nano-vfprintf.o)
 .xt.lit        0x0000000000001270        0x8 ../../libc/xtensa-lx106-elf/lib/libc.a(lib_a-stdio.o)
 .xt.lit        0x0000000000001278        0x0 ../../libc/xtensa-lx106-elf/lib/libc.a(isatty.o)
                                          0x8 (size before relaxing)
 .xt.lit        0x0000000000001278        0x8 ../../libc/xtensa-lx106-elf/lib/libc.a(lib_a-fclose.o)
 .xt.lit        0x0000000000001280        0x8 ../../libc/xtensa-lx106-elf/lib/libc.a(lib_a-fputwc.o)
 .xt.lit        0x0000000000001288        0x8 ../../libc/xtensa-lx106-elf/lib/libc.a(lib_a-locale.o)
 .xt.lit        0x0000000000001290        0x8 ../../libc/xtensa-lx106-elf/lib/libc.a(lib_a-wcrtomb.o)
 .xt.lit        0x0000000000001298        0x0 ../../libc/xtensa-lx106-elf/lib/libc.a(lib_a-wctomb_r.o)
                                          0x8 (size before relaxing)
 .xt.lit        0x0000000000001298        0x0 ./build/sdklib/libnet80211.a(ieee80211_crypto_ccmp.o)
                                          0x8 (size before relaxing)
 .xt.lit        0x0000000000001298        0x8 ./build/sdklib/libnet80211.a(ieee80211_crypto_tkip.o)
                                         0x10 (size before relaxing)
 .xt.lit        0x00000000000012a0        0x0 ./build/sdklib/libnet80211.a(ieee80211_crypto_wep.o)
                                          0x8 (size before relaxing)
 .xt.lit        0x00000000000012a0        0x8 ./build/core.a(newlib_syscalls.o)
                                         0x18 (size before relaxing)

.xt.prop        0x0000000000000000    0x297d8
 .xt.prop       0x0000000000000000      0x5d0 ./build/sdklib/libmain.a(app_main.o)
                                        0x618 (size before relaxing)
 .xt.prop       0x00000000000005d0      0x3d8 ./build/sdklib/libmain.a(ets_timer.o)
                                        0x438 (size before relaxing)
 .xt.prop       0x00000000000009a8      0x120 ./build/sdklib/libmain.a(misc.o)
                                        0x138 (size before relaxing)
 .xt.prop       0x0000000000000ac8      0x2a0 ./build/sdklib/libmain.a(spi_flash.o)
                                        0x2ac (size before relaxing)
 .xt.prop       0x0000000000000d68       0x60 ./build/sdklib/libmain.a(uart.o)
                                         0x6c (size before relaxing)
 .xt.prop       0x0000000000000dc8     0x1bfc ./build/sdklib/libmain.a(user_interface.o)
                                       0x1cd4 (size before relaxing)
 .xt.prop       0x00000000000029c4      0x108 ./build/sdklib/libmain.a(os_cpu_a.o)
                                        0x114 (size before relaxing)
 .xt.prop       0x0000000000002acc       0x30 ./build/sdklib/libmain.a(xtensa_context.o)
 .xt.prop       0x0000000000002afc       0xe4 ./build/sdklib/libmain.a(timers.o)
                                         0xfc (size before relaxing)
 .xt.prop       0x0000000000002be0      0x2b8 ./build/sdklib/libnet80211.a(ieee80211.o)
                                        0x2dc (size before relaxing)
 .xt.prop       0x0000000000002e98      0x108 ./build/sdklib/libnet80211.a(ieee80211_crypto.o)
                                        0x114 (size before relaxing)
 .xt.prop       0x0000000000002fa0      0x8c4 ./build/sdklib/libnet80211.a(ieee80211_hostap.o)
                                        0x924 (size before relaxing)
 .xt.prop       0x0000000000003864      0x60c ./build/sdklib/libnet80211.a(ieee80211_ht.o)
 .xt.prop       0x0000000000003e70      0x78c ./build/sdklib/libnet80211.a(ieee80211_input.o)
 .xt.prop       0x00000000000045fc      0xa68 ./build/sdklib/libnet80211.a(ieee80211_output.o)
                                        0xa74 (size before relaxing)
 .xt.prop       0x0000000000005064      0x24c ./build/sdklib/libnet80211.a(ieee80211_phy.o)
 .xt.prop       0x00000000000052b0      0x168 ./build/sdklib/libnet80211.a(ieee80211_power.o)
                                        0x174 (size before relaxing)
 .xt.prop       0x0000000000005418      0x1f8 ./build/sdklib/libnet80211.a(ieee80211_proto.o)
                                        0x204 (size before relaxing)
 .xt.prop       0x0000000000005610      0x9e4 ./build/sdklib/libnet80211.a(ieee80211_scan.o)
                                        0xa5c (size before relaxing)
 .xt.prop       0x0000000000005ff4      0x810 ./build/sdklib/libnet80211.a(ieee80211_sta.o)
 .xt.prop       0x0000000000006804      0x2e8 ./build/sdklib/libnet80211.a(wl_chm.o)
                                        0x2f4 (size before relaxing)
 .xt.prop       0x0000000000006aec      0xc18 ./build/sdklib/libnet80211.a(wl_cnx.o)
                                        0xc48 (size before relaxing)
 .xt.prop       0x0000000000007704      0x2e8 ./build/sdklib/libnet80211.a(ieee80211_action.o)
                                        0x2f4 (size before relaxing)
 .xt.prop       0x00000000000079ec       0x54 ./build/sdklib/libnet80211.a(ieee80211_ets.o)
 .xt.prop       0x0000000000007a40      0x1b0 ./build/sdklib/libphy.a(phy.o)
                                        0x1bc (size before relaxing)
 .xt.prop       0x0000000000007bf0      0xb4c ./build/sdklib/libphy.a(phy_chip_v6_ana.o)
 .xt.prop       0x000000000000873c     0x1860 ./build/sdklib/libphy.a(phy_chip_v6.o)
                                       0x19e0 (size before relaxing)
 .xt.prop       0x0000000000009f9c      0xfb4 ./build/sdklib/libphy.a(phy_chip_v6_cal.o)
                                        0xffc (size before relaxing)
 .xt.prop       0x000000000000af50      0x15c ./build/sdklib/libphy.a(phy_chip_v6_unused.o)
                                        0x168 (size before relaxing)
 .xt.prop       0x000000000000b0ac      0x810 ./build/sdklib/libphy.a(phy_sleep.o)
                                        0x84c (size before relaxing)
 .xt.prop       0x000000000000b8bc      0x5d0 ./build/sdklib/libphy.a(phy_chip_v5_romfunc.o)
                                        0x5e8 (size before relaxing)
 .xt.prop       0x000000000000be8c      0xa08 ./build/sdklib/libphy.a(phy_chip_v5_ana_romfunc.o)
 .xt.prop       0x000000000000c894      0x6f0 ./build/sdklib/libphy.a(phy_chip_v5_cal_romfunc.o)
                                        0x6fc (size before relaxing)
 .xt.prop       0x000000000000cf84      0x318 ./build/sdklib/libpp.a(esf_buf.o)
                                        0x384 (size before relaxing)
 .xt.prop       0x000000000000d29c      0x390 ./build/sdklib/libpp.a(if_hwctrl.o)
                                        0x3a8 (size before relaxing)
 .xt.prop       0x000000000000d62c     0x10d4 ./build/sdklib/libpp.a(lmac.o)
                                       0x1128 (size before relaxing)
 .xt.prop       0x000000000000e700      0xff0 ./build/sdklib/libpp.a(pm.o)
                                       0x10c8 (size before relaxing)
 .xt.prop       0x000000000000f6f0     0x16d4 ./build/sdklib/libpp.a(pp.o)
                                       0x183c (size before relaxing)
 .xt.prop       0x0000000000010dc4      0x1b0 ./build/sdklib/libpp.a(rate_control.o)
                                        0x1d4 (size before relaxing)
 .xt.prop       0x0000000000010f74      0xd14 ./build/sdklib/libpp.a(trc.o)
                                        0xd8c (size before relaxing)
 .xt.prop       0x0000000000011c88     0x1074 ./build/sdklib/libpp.a(wdev.o)
                                       0x114c (size before relaxing)
 .xt.prop       0x0000000000012cfc      0x2a0 ./build/sdklib/libwpa.a(ap_config.o)
                                        0x2ac (size before relaxing)
 .xt.prop       0x0000000000012f9c      0x1c8 ./build/sdklib/libwpa.a(common.o)
                                        0x1d4 (size before relaxing)
 .xt.prop       0x0000000000013164       0x78 ./build/sdklib/libwpa.a(os_xtensa.o)
                                         0x84 (size before relaxing)
 .xt.prop       0x00000000000131dc       0xc0 ./build/sdklib/libwpa.a(sha1-pbkdf2.o)
 .xt.prop       0x000000000001329c     0x1548 ./build/sdklib/libwpa.a(wpa_auth.o)
                                       0x1578 (size before relaxing)
 .xt.prop       0x00000000000147e4      0x414 ./build/sdklib/libwpa.a(wpa_auth_ie.o)
 .xt.prop       0x0000000000014bf8      0xbdc ./build/sdklib/libwpa.a(wpa.o)
                                        0xc0c (size before relaxing)
 .xt.prop       0x00000000000157d4      0x720 ./build/sdklib/libwpa.a(wpa_common.o)
                                        0x72c (size before relaxing)
 .xt.prop       0x0000000000015ef4       0x30 ./build/sdklib/libwpa.a(wpa_debug.o)
                                         0x3c (size before relaxing)
 .xt.prop       0x0000000000015f24      0x348 ./build/sdklib/libwpa.a(wpa_ie.o)
 .xt.prop       0x000000000001626c      0x234 ./build/sdklib/libwpa.a(wpa_main.o)
 .xt.prop       0x00000000000164a0      0x108 ./build/sdklib/libwpa.a(wpas_glue.o)
 .xt.prop       0x00000000000165a8       0x6c ./build/sdklib/libwpa.a(aes-unwrap.o)
 .xt.prop       0x0000000000016614       0x60 ./build/sdklib/libwpa.a(aes-wrap.o)
 .xt.prop       0x0000000000016674       0xa8 ./build/sdklib/libwpa.a(md5.o)
 .xt.prop       0x000000000001671c      0x138 ./build/sdklib/libwpa.a(md5-internal.o)
                                        0x144 (size before relaxing)
 .xt.prop       0x0000000000016854       0x78 ./build/sdklib/libwpa.a(rc4.o)
                                         0x84 (size before relaxing)
 .xt.prop       0x00000000000168cc      0x108 ./build/sdklib/libwpa.a(sha1.o)
 .xt.prop       0x00000000000169d4      0x138 ./build/sdklib/libwpa.a(sha1-internal.o)
                                        0x150 (size before relaxing)
 .xt.prop       0x0000000000016b0c      0x108 ./build/sdklib/libwpa.a(aes-internal-dec.o)
                                        0x114 (size before relaxing)
 .xt.prop       0x0000000000016c14       0xcc ./build/sdklib/libwpa.a(aes-internal-enc.o)
 .xt.prop       0x0000000000016ce0       0x3c ./build/sdklib/libwpa.a(aes-internal.o)
                                         0x54 (size before relaxing)
 .xt.prop       0x0000000000016d1c      0x204 ./build/program.a(http_get_ssl.o)
 .xt.prop       0x0000000000016f20      0x6a8 ./build/freertos.a(queue.o)
 .xt.prop       0x00000000000175c8      0xbd0 ./build/freertos.a(tasks.o)
                                        0xcc0 (size before relaxing)
 .xt.prop       0x0000000000018198      0x2dc ./build/freertos.a(timers.o)
                                        0x330 (size before relaxing)
 .xt.prop       0x0000000000018474      0x258 ./build/freertos.a(port.o)
                                        0x2a0 (size before relaxing)
 .xt.prop       0x00000000000186cc       0xd8 ./build/freertos.a(list.o)
 .xt.prop       0x00000000000187a4       0xa8 ./build/lwip.a(esp_interface.o)
 .xt.prop       0x000000000001884c      0x1d4 ./build/lwip.a(netdb.o)
                                        0x204 (size before relaxing)
 .xt.prop       0x0000000000018a20     0x1614 ./build/lwip.a(sockets.o)
                                       0x165c (size before relaxing)
 .xt.prop       0x000000000001a034      0x3cc ./build/lwip.a(tcpip.o)
                                        0x3f0 (size before relaxing)
 .xt.prop       0x000000000001a400      0xb04 ./build/lwip.a(dhcp.o)
 .xt.prop       0x000000000001af04      0x378 ./build/lwip.a(dns.o)
                                        0x3d8 (size before relaxing)
 .xt.prop       0x000000000001b27c       0x24 ./build/lwip.a(init.o)
 .xt.prop       0x000000000001b2a0        0xc ./build/lwip.a(memp.o)
 .xt.prop       0x000000000001b2ac      0x384 ./build/lwip.a(netif.o)
                                        0x390 (size before relaxing)
 .xt.prop       0x000000000001b630      0x738 ./build/lwip.a(pbuf.o)
 .xt.prop       0x000000000001bd68       0x24 ./build/lwip.a(stats.o)
 .xt.prop       0x000000000001bd8c     0x1044 ./build/lwip.a(tcp.o)
                                       0x1080 (size before relaxing)
 .xt.prop       0x000000000001cdd0      0x7a4 ./build/lwip.a(tcp_out.o)
 .xt.prop       0x000000000001d574      0x2e8 ./build/lwip.a(timers.o)
                                        0x300 (size before relaxing)
 .xt.prop       0x000000000001d85c      0x5a0 ./build/lwip.a(udp.o)
 .xt.prop       0x000000000001ddfc      0x108 ./build/lwip.a(icmp.o)
 .xt.prop       0x000000000001df04      0x1a4 ./build/lwip.a(inet_chksum.o)
 .xt.prop       0x000000000001e0a8      0x330 ./build/lwip.a(ip_addr.o)
                                        0x348 (size before relaxing)
 .xt.prop       0x000000000001e3d8      0x348 ./build/lwip.a(ip.o)
                                        0x354 (size before relaxing)
 .xt.prop       0x000000000001e720       0x84 ./build/lwip.a(ip_frag.o)
 .xt.prop       0x000000000001e7a4      0x690 ./build/lwip.a(etharp.o)
                                        0x6b4 (size before relaxing)
 .xt.prop       0x000000000001ee34      0x42c ./build/lwip.a(sys_arch.o)
 .xt.prop       0x000000000001f260      0x54c ./build/lwip.a(api_lib.o)
 .xt.prop       0x000000000001f7ac      0xdc8 ./build/lwip.a(api_msg.o)
 .xt.prop       0x0000000000020574      0x1d4 ./build/lwip.a(netbuf.o)
 .xt.prop       0x0000000000020748      0x294 ./build/lwip.a(raw.o)
                                        0x2a0 (size before relaxing)
 .xt.prop       0x00000000000209dc      0x9c0 ./build/lwip.a(tcp_in.o)
                                        0xa44 (size before relaxing)
 .xt.prop       0x000000000002139c     0x1230 ./build/axtls.a(tls1.o)
                                       0x1260 (size before relaxing)
 .xt.prop       0x00000000000225cc      0x27c ./build/axtls.a(tls1_clnt.o)
 .xt.prop       0x0000000000022848      0x2ac ./build/axtls.a(tls1_svr.o)
                                        0x2c4 (size before relaxing)
 .xt.prop       0x0000000000022af4      0x3b4 ./build/axtls.a(x509.o)
 .xt.prop       0x0000000000022ea8       0x78 ./build/axtls.a(axtls_esp_stubs.o)
 .xt.prop       0x0000000000022f20      0x3cc ./build/axtls.a(aes.o)
                                        0x3d8 (size before relaxing)
 .xt.prop       0x00000000000232ec      0x9d8 ./build/axtls.a(bigint.o)
 .xt.prop       0x0000000000023cc4      0x114 ./build/axtls.a(crypto_misc.o)
                                        0x120 (size before relaxing)
 .xt.prop       0x0000000000023dd8       0x60 ./build/axtls.a(hmac.o)
 .xt.prop       0x0000000000023e38      0x12c ./build/axtls.a(md5.o)
 .xt.prop       0x0000000000023f64       0x84 ./build/axtls.a(rc4.o)
 .xt.prop       0x0000000000023fe8      0x210 ./build/axtls.a(rsa.o)
 .xt.prop       0x00000000000241f8      0x1b0 ./build/axtls.a(sha1.o)
 .xt.prop       0x00000000000243a8       0xe4 ./build/axtls.a(sha256.o)
 .xt.prop       0x000000000002448c       0x78 ./build/axtls.a(sha384.o)
 .xt.prop       0x0000000000024504      0x210 ./build/axtls.a(sha512.o)
 .xt.prop       0x0000000000024714      0x6b4 ./build/axtls.a(asn1.o)
                                        0x6c0 (size before relaxing)
 .xt.prop       0x0000000000024dc8      0x114 ./build/axtls.a(loader.o)
 .xt.prop       0x0000000000024edc       0x60 ./build/core.a(sdk_compat.o)
 .xt.prop       0x0000000000024f3c       0x78 /root/ESP8266/esp-open-sdk/xtensa-lx106-elf/xtensa-lx106-elf/sysroot/usr/lib/libhal.a(clock.o)
 .xt.prop       0x0000000000024fb4       0x24 /root/ESP8266/esp-open-sdk/xtensa-lx106-elf/xtensa-lx106-elf/sysroot/usr/lib/libhal.a(int_asm--set_intset.o)
 .xt.prop       0x0000000000024fd8       0x9c /root/ESP8266/esp-open-sdk/xtensa-lx106-elf/lib/gcc/xtensa-lx106-elf/4.8.2/libgcc.a(_divsi3.o)
 .xt.prop       0x0000000000025074       0x84 /root/ESP8266/esp-open-sdk/xtensa-lx106-elf/lib/gcc/xtensa-lx106-elf/4.8.2/libgcc.a(_modsi3.o)
 .xt.prop       0x00000000000250f8       0x9c /root/ESP8266/esp-open-sdk/xtensa-lx106-elf/lib/gcc/xtensa-lx106-elf/4.8.2/libgcc.a(_udivsi3.o)
 .xt.prop       0x0000000000025194       0x78 /root/ESP8266/esp-open-sdk/xtensa-lx106-elf/lib/gcc/xtensa-lx106-elf/4.8.2/libgcc.a(_umodsi3.o)
 .xt.prop       0x000000000002520c       0x3c /root/ESP8266/esp-open-sdk/xtensa-lx106-elf/lib/gcc/xtensa-lx106-elf/4.8.2/libgcc.a(_ashrdi3.o)
 .xt.prop       0x0000000000025248      0x2e8 /root/ESP8266/esp-open-sdk/xtensa-lx106-elf/lib/gcc/xtensa-lx106-elf/4.8.2/libgcc.a(_addsubsf3.o)
 .xt.prop       0x0000000000025530      0x15c /root/ESP8266/esp-open-sdk/xtensa-lx106-elf/lib/gcc/xtensa-lx106-elf/4.8.2/libgcc.a(_mulsf3.o)
                                        0x168 (size before relaxing)
 .xt.prop       0x000000000002568c      0x15c /root/ESP8266/esp-open-sdk/xtensa-lx106-elf/lib/gcc/xtensa-lx106-elf/4.8.2/libgcc.a(_divsf3.o)
                                        0x168 (size before relaxing)
 .xt.prop       0x00000000000257e8       0x60 /root/ESP8266/esp-open-sdk/xtensa-lx106-elf/lib/gcc/xtensa-lx106-elf/4.8.2/libgcc.a(_fixsfsi.o)
                                         0x6c (size before relaxing)
 .xt.prop       0x0000000000025848       0x9c /root/ESP8266/esp-open-sdk/xtensa-lx106-elf/lib/gcc/xtensa-lx106-elf/4.8.2/libgcc.a(_fixunssfsi.o)
                                         0xa8 (size before relaxing)
 .xt.prop       0x00000000000258e4       0x60 /root/ESP8266/esp-open-sdk/xtensa-lx106-elf/lib/gcc/xtensa-lx106-elf/4.8.2/libgcc.a(_floatsisf.o)
 .xt.prop       0x0000000000025944      0x408 /root/ESP8266/esp-open-sdk/xtensa-lx106-elf/lib/gcc/xtensa-lx106-elf/4.8.2/libgcc.a(_addsubdf3.o)
 .xt.prop       0x0000000000025d4c      0x294 /root/ESP8266/esp-open-sdk/xtensa-lx106-elf/lib/gcc/xtensa-lx106-elf/4.8.2/libgcc.a(_muldf3.o)
 .xt.prop       0x0000000000025fe0      0x258 /root/ESP8266/esp-open-sdk/xtensa-lx106-elf/lib/gcc/xtensa-lx106-elf/4.8.2/libgcc.a(_divdf3.o)
                                        0x264 (size before relaxing)
 .xt.prop       0x0000000000026238       0x60 /root/ESP8266/esp-open-sdk/xtensa-lx106-elf/lib/gcc/xtensa-lx106-elf/4.8.2/libgcc.a(_fixdfsi.o)
                                         0x6c (size before relaxing)
 .xt.prop       0x0000000000026298       0x54 /root/ESP8266/esp-open-sdk/xtensa-lx106-elf/lib/gcc/xtensa-lx106-elf/4.8.2/libgcc.a(_floatsidf.o)
 .xt.prop       0x00000000000262ec       0xb4 /root/ESP8266/esp-open-sdk/xtensa-lx106-elf/lib/gcc/xtensa-lx106-elf/4.8.2/libgcc.a(_truncdfsf2.o)
 .xt.prop       0x00000000000263a0       0x60 /root/ESP8266/esp-open-sdk/xtensa-lx106-elf/lib/gcc/xtensa-lx106-elf/4.8.2/libgcc.a(_extendsfdf2.o)
                                         0x6c (size before relaxing)
 .xt.prop       0x0000000000026400       0x24 /root/ESP8266/esp-open-sdk/xtensa-lx106-elf/lib/gcc/xtensa-lx106-elf/4.8.2/libgcc.a(_muldi3.o)
                                         0x30 (size before relaxing)
 .xt.prop       0x0000000000026424       0x3c /root/ESP8266/esp-open-sdk/xtensa-lx106-elf/lib/gcc/xtensa-lx106-elf/4.8.2/libgcc.a(_popcountsi2.o)
 .xt.prop       0x0000000000026460      0x1f8 /root/ESP8266/esp-open-sdk/xtensa-lx106-elf/lib/gcc/xtensa-lx106-elf/4.8.2/libgcc.a(_divdi3.o)
                                        0x204 (size before relaxing)
 .xt.prop       0x0000000000026658      0x1d4 /root/ESP8266/esp-open-sdk/xtensa-lx106-elf/lib/gcc/xtensa-lx106-elf/4.8.2/libgcc.a(_udivdi3.o)
                                        0x1e0 (size before relaxing)
 .xt.prop       0x000000000002682c      0x144 /root/ESP8266/esp-open-sdk/xtensa-lx106-elf/lib/gcc/xtensa-lx106-elf/4.8.2/libgcc.a(_umoddi3.o)
                                        0x150 (size before relaxing)
 .xt.prop       0x0000000000026970       0x3c /root/ESP8266/esp-open-sdk/xtensa-lx106-elf/lib/gcc/xtensa-lx106-elf/4.8.2/libgcc.a(_umulsidi3.o)
 .xt.prop       0x00000000000269ac        0xc /root/ESP8266/esp-open-sdk/xtensa-lx106-elf/lib/gcc/xtensa-lx106-elf/4.8.2/libgcc.a(_popcount_tab.o)
 .xt.prop       0x00000000000269b8       0x3c ../../libc/xtensa-lx106-elf/lib/libc.a(lib_a-atoi.o)
                                         0x48 (size before relaxing)
 .xt.prop       0x00000000000269f4       0x3c ../../libc/xtensa-lx106-elf/lib/libc.a(lib_a-bzero.o)
 .xt.prop       0x0000000000026a30       0x30 ../../libc/xtensa-lx106-elf/lib/libc.a(lib_a-calloc.o)
 .xt.prop       0x0000000000026a60       0x24 ../../libc/xtensa-lx106-elf/lib/libc.a(lib_a-errno.o)
                                         0x30 (size before relaxing)
 .xt.prop       0x0000000000026a84       0x24 ../../libc/xtensa-lx106-elf/lib/libc.a(lib_a-impure.o)
 .xt.prop       0x0000000000026aa8       0x48 ../../libc/xtensa-lx106-elf/lib/libc.a(lib_a-malloc.o)
 .xt.prop       0x0000000000026af0       0x54 ../../libc/xtensa-lx106-elf/lib/libc.a(lib_a-memcmp.o)
 .xt.prop       0x0000000000026b44      0x174 ../../libc/xtensa-lx106-elf/lib/libc.a(lib_a-memcpy.o)
 .xt.prop       0x0000000000026cb8       0xe4 ../../libc/xtensa-lx106-elf/lib/libc.a(lib_a-memset.o)
 .xt.prop       0x0000000000026d9c       0x90 ../../libc/xtensa-lx106-elf/lib/libc.a(lib_a-mstats.o)
 .xt.prop       0x0000000000026e2c       0x3c ../../libc/xtensa-lx106-elf/lib/libc.a(lib_a-nano-callocr.o)
 .xt.prop       0x0000000000026e68       0xd8 ../../libc/xtensa-lx106-elf/lib/libc.a(lib_a-nano-freer.o)
                                         0xe4 (size before relaxing)
 .xt.prop       0x0000000000026f40       0x6c ../../libc/xtensa-lx106-elf/lib/libc.a(lib_a-nano-mallinfor.o)
 .xt.prop       0x0000000000026fac      0x138 ../../libc/xtensa-lx106-elf/lib/libc.a(lib_a-nano-mallocr.o)
 .xt.prop       0x00000000000270e4       0x24 ../../libc/xtensa-lx106-elf/lib/libc.a(lib_a-nano-malloptr.o)
 .xt.prop       0x0000000000027108       0x30 ../../libc/xtensa-lx106-elf/lib/libc.a(lib_a-nano-mallstatsr.o)
 .xt.prop       0x0000000000027138       0x3c ../../libc/xtensa-lx106-elf/lib/libc.a(lib_a-printf.o)
                                         0x48 (size before relaxing)
 .xt.prop       0x0000000000027174       0x3c ../../libc/xtensa-lx106-elf/lib/libc.a(lib_a-putchar.o)
                                         0x48 (size before relaxing)
 .xt.prop       0x00000000000271b0       0xa8 ../../libc/xtensa-lx106-elf/lib/libc.a(lib_a-putc.o)
 .xt.prop       0x0000000000027258       0x6c ../../libc/xtensa-lx106-elf/lib/libc.a(lib_a-puts.o)
 .xt.prop       0x00000000000272c4       0x54 ../../libc/xtensa-lx106-elf/lib/libc.a(lib_a-rand.o)
 .xt.prop       0x0000000000027318       0x24 ../../libc/xtensa-lx106-elf/lib/libc.a(lib_a-realloc.o)
                                         0x30 (size before relaxing)
 .xt.prop       0x000000000002733c       0x3c ../../libc/xtensa-lx106-elf/lib/libc.a(lib_a-sprintf.o)
                                         0x48 (size before relaxing)
 .xt.prop       0x0000000000027378      0x108 ../../libc/xtensa-lx106-elf/lib/libc.a(lib_a-strcmp.o)
 .xt.prop       0x0000000000027480       0xe4 ../../libc/xtensa-lx106-elf/lib/libc.a(lib_a-strcpy.o)
                                         0xf0 (size before relaxing)
 .xt.prop       0x0000000000027564       0xa8 ../../libc/xtensa-lx106-elf/lib/libc.a(lib_a-strlen.o)
                                         0xb4 (size before relaxing)
 .xt.prop       0x000000000002760c       0x78 ../../libc/xtensa-lx106-elf/lib/libc.a(lib_a-strncmp.o)
 .xt.prop       0x0000000000027684      0x168 ../../libc/xtensa-lx106-elf/lib/libc.a(lib_a-strncpy.o)
                                        0x174 (size before relaxing)
 .xt.prop       0x00000000000277ec       0x60 ../../libc/xtensa-lx106-elf/lib/libc.a(lib_a-strrchr.o)
                                         0x6c (size before relaxing)
 .xt.prop       0x000000000002784c      0x15c ../../libc/xtensa-lx106-elf/lib/libc.a(lib_a-strtol.o)
 .xt.prop       0x00000000000279a8       0x24 ../../libc/xtensa-lx106-elf/lib/libc.a(lib_a-syssbrk.o)
                                         0x30 (size before relaxing)
 .xt.prop       0x00000000000279cc       0x9c ../../libc/xtensa-lx106-elf/lib/libc.a(lib_a-wbuf.o)
                                         0xa8 (size before relaxing)
 .xt.prop       0x0000000000027a68       0xb4 ../../libc/xtensa-lx106-elf/lib/libc.a(lib_a-wsetup.o)
 .xt.prop       0x0000000000027b1c       0x3c ../../libc/xtensa-lx106-elf/lib/libc.a(lock.o)
 .xt.prop       0x0000000000027b58        0xc ../../libc/xtensa-lx106-elf/lib/libc.a(lib_a-ctype_.o)
 .xt.prop       0x0000000000027b64      0x1a4 ../../libc/xtensa-lx106-elf/lib/libc.a(lib_a-fflush.o)
 .xt.prop       0x0000000000027d08      0x204 ../../libc/xtensa-lx106-elf/lib/libc.a(lib_a-findfp.o)
                                        0x21c (size before relaxing)
 .xt.prop       0x0000000000027f0c       0x3c ../../libc/xtensa-lx106-elf/lib/libc.a(lib_a-fprintf.o)
                                         0x48 (size before relaxing)
 .xt.prop       0x0000000000027f48      0x258 ../../libc/xtensa-lx106-elf/lib/libc.a(lib_a-fvwrite.o)
 .xt.prop       0x00000000000281a0       0xb4 ../../libc/xtensa-lx106-elf/lib/libc.a(lib_a-fwalk.o)
 .xt.prop       0x0000000000028254       0xa8 ../../libc/xtensa-lx106-elf/lib/libc.a(lib_a-makebuf.o)
 .xt.prop       0x00000000000282fc       0x48 ../../libc/xtensa-lx106-elf/lib/libc.a(lib_a-memchr.o)
 .xt.prop       0x0000000000028344       0x78 ../../libc/xtensa-lx106-elf/lib/libc.a(lib_a-memmove.o)
 .xt.prop       0x00000000000283bc       0x60 ../../libc/xtensa-lx106-elf/lib/libc.a(lib_a-nano-reallocr.o)
                                         0x6c (size before relaxing)
 .xt.prop       0x000000000002841c      0x2e8 ../../libc/xtensa-lx106-elf/lib/libc.a(lib_a-nano-svfprintf.o)
 .xt.prop       0x0000000000028704      0x510 ../../libc/xtensa-lx106-elf/lib/libc.a(lib_a-nano-vfprintf_i.o)
 .xt.prop       0x0000000000028c14      0x330 ../../libc/xtensa-lx106-elf/lib/libc.a(lib_a-nano-vfprintf.o)
 .xt.prop       0x0000000000028f44       0xcc ../../libc/xtensa-lx106-elf/lib/libc.a(lib_a-stdio.o)
 .xt.prop       0x0000000000029010       0x60 ../../libc/xtensa-lx106-elf/lib/libc.a(lib_a-strchr.o)
 .xt.prop       0x0000000000029070       0x3c ../../libc/xtensa-lx106-elf/lib/libc.a(isatty.o)
                                         0x48 (size before relaxing)
 .xt.prop       0x00000000000290ac       0xc0 ../../libc/xtensa-lx106-elf/lib/libc.a(lib_a-fclose.o)
 .xt.prop       0x000000000002916c      0x144 ../../libc/xtensa-lx106-elf/lib/libc.a(lib_a-fputwc.o)
 .xt.prop       0x00000000000292b0      0x114 ../../libc/xtensa-lx106-elf/lib/libc.a(lib_a-locale.o)
 .xt.prop       0x00000000000293c4       0x30 ../../libc/xtensa-lx106-elf/lib/libc.a(lib_a-nano-msizer.o)
 .xt.prop       0x00000000000293f4       0x6c ../../libc/xtensa-lx106-elf/lib/libc.a(lib_a-wcrtomb.o)
 .xt.prop       0x0000000000029460       0x78 ../../libc/xtensa-lx106-elf/lib/libc.a(lib_a-wctomb_r.o)
                                         0x84 (size before relaxing)
 .xt.prop       0x00000000000294d8       0xb4 ./build/sdklib/libnet80211.a(ieee80211_crypto_ccmp.o)
                                         0xc0 (size before relaxing)
 .xt.prop       0x000000000002958c       0xcc ./build/sdklib/libnet80211.a(ieee80211_crypto_tkip.o)
                                         0xe4 (size before relaxing)
 .xt.prop       0x0000000000029658       0x6c ./build/sdklib/libnet80211.a(ieee80211_crypto_wep.o)
                                         0x78 (size before relaxing)
 .xt.prop       0x00000000000296c4      0x114 ./build/core.a(newlib_syscalls.o)
                                        0x120 (size before relaxing)

.debug_line     0x0000000000000000    0x28929
 .debug_line    0x0000000000000000      0x3e9 ./build/core.a(exception_vectors.o)
 .debug_line    0x00000000000003e9      0x6a0 ./build/program.a(http_get_ssl.o)
 .debug_line    0x0000000000000a89      0x939 ./build/freertos.a(queue.o)
 .debug_line    0x00000000000013c2      0xf87 ./build/freertos.a(tasks.o)
 .debug_line    0x0000000000002349      0x59e ./build/freertos.a(timers.o)
 .debug_line    0x00000000000028e7      0x56a ./build/freertos.a(port.o)
 .debug_line    0x0000000000002e51      0x2a4 ./build/freertos.a(list.o)
 .debug_line    0x00000000000030f5      0x252 ./build/lwip.a(esp_interface.o)
 .debug_line    0x0000000000003347      0x56a ./build/lwip.a(netdb.o)
 .debug_line    0x00000000000038b1     0x17ed ./build/lwip.a(sockets.o)
 .debug_line    0x000000000000509e      0x761 ./build/lwip.a(tcpip.o)
 .debug_line    0x00000000000057ff     0x159c ./build/lwip.a(dhcp.o)
 .debug_line    0x0000000000006d9b      0x7ef ./build/lwip.a(dns.o)
 .debug_line    0x000000000000758a      0x1f9 ./build/lwip.a(init.o)
 .debug_line    0x0000000000007783      0x184 ./build/lwip.a(memp.o)
 .debug_line    0x0000000000007907      0x51f ./build/lwip.a(netif.o)
 .debug_line    0x0000000000007e26      0xa7a ./build/lwip.a(pbuf.o)
 .debug_line    0x00000000000088a0      0x12d ./build/lwip.a(stats.o)
 .debug_line    0x00000000000089cd     0x1420 ./build/lwip.a(tcp.o)
 .debug_line    0x0000000000009ded     0x1227 ./build/lwip.a(tcp_out.o)
 .debug_line    0x000000000000b014      0x5ca ./build/lwip.a(timers.o)
 .debug_line    0x000000000000b5de      0x95f ./build/lwip.a(udp.o)
 .debug_line    0x000000000000bf3d      0x467 ./build/lwip.a(icmp.o)
 .debug_line    0x000000000000c3a4      0x4f7 ./build/lwip.a(inet_chksum.o)
 .debug_line    0x000000000000c89b      0x4bc ./build/lwip.a(ip_addr.o)
 .debug_line    0x000000000000cd57      0x77c ./build/lwip.a(ip.o)
 .debug_line    0x000000000000d4d3      0x3bb ./build/lwip.a(ip_frag.o)
 .debug_line    0x000000000000d88e      0xc0e ./build/lwip.a(etharp.o)
 .debug_line    0x000000000000e49c      0x698 ./build/lwip.a(sys_arch.o)
 .debug_line    0x000000000000eb34      0xab3 ./build/lwip.a(api_lib.o)
 .debug_line    0x000000000000f5e7     0x12eb ./build/lwip.a(api_msg.o)
 .debug_line    0x00000000000108d2      0x3b9 ./build/lwip.a(netbuf.o)
 .debug_line    0x0000000000010c8b      0x484 ./build/lwip.a(raw.o)
 .debug_line    0x000000000001110f     0x121b ./build/lwip.a(tcp_in.o)
 .debug_line    0x000000000001232a     0x18c9 ./build/axtls.a(tls1.o)
 .debug_line    0x0000000000013bf3      0x670 ./build/axtls.a(tls1_clnt.o)
 .debug_line    0x0000000000014263      0x5f6 ./build/axtls.a(tls1_svr.o)
 .debug_line    0x0000000000014859      0x7e0 ./build/axtls.a(x509.o)
 .debug_line    0x0000000000015039      0x113 ./build/axtls.a(axtls_esp_stubs.o)
 .debug_line    0x000000000001514c      0x937 ./build/axtls.a(aes.o)
 .debug_line    0x0000000000015a83     0x1655 ./build/axtls.a(bigint.o)
 .debug_line    0x00000000000170d8      0x23f ./build/axtls.a(crypto_misc.o)
 .debug_line    0x0000000000017317      0x2d7 ./build/axtls.a(hmac.o)
 .debug_line    0x00000000000175ee      0x7b9 ./build/axtls.a(md5.o)
 .debug_line    0x0000000000017da7      0x25a ./build/axtls.a(rc4.o)
 .debug_line    0x0000000000018001      0x5bd ./build/axtls.a(rsa.o)
 .debug_line    0x00000000000185be      0x57b ./build/axtls.a(sha1.o)
 .debug_line    0x0000000000018b39     0x2950 ./build/axtls.a(sha256.o)
 .debug_line    0x000000000001b489      0x240 ./build/axtls.a(sha384.o)
 .debug_line    0x000000000001b6c9      0x6cf ./build/axtls.a(sha512.o)
 .debug_line    0x000000000001bd98      0xcfc ./build/axtls.a(asn1.o)
 .debug_line    0x000000000001ca94      0x33c ./build/axtls.a(loader.o)
 .debug_line    0x000000000001cdd0      0x155 ./build/core.a(sdk_compat.o)
 .debug_line    0x000000000001cf25      0x15b /root/ESP8266/esp-open-sdk/xtensa-lx106-elf/lib/gcc/xtensa-lx106-elf/4.8.2/libgcc.a(_divsi3.o)
 .debug_line    0x000000000001d080      0x119 /root/ESP8266/esp-open-sdk/xtensa-lx106-elf/lib/gcc/xtensa-lx106-elf/4.8.2/libgcc.a(_modsi3.o)
 .debug_line    0x000000000001d199      0x12b /root/ESP8266/esp-open-sdk/xtensa-lx106-elf/lib/gcc/xtensa-lx106-elf/4.8.2/libgcc.a(_udivsi3.o)
 .debug_line    0x000000000001d2c4       0xfb /root/ESP8266/esp-open-sdk/xtensa-lx106-elf/lib/gcc/xtensa-lx106-elf/4.8.2/libgcc.a(_umodsi3.o)
 .debug_line    0x000000000001d3bf       0xb9 /root/ESP8266/esp-open-sdk/xtensa-lx106-elf/lib/gcc/xtensa-lx106-elf/4.8.2/libgcc.a(_ashrdi3.o)
 .debug_line    0x000000000001d478      0x4bc /root/ESP8266/esp-open-sdk/xtensa-lx106-elf/lib/gcc/xtensa-lx106-elf/4.8.2/libgcc.a(_addsubsf3.o)
 .debug_line    0x000000000001d934      0x37e /root/ESP8266/esp-open-sdk/xtensa-lx106-elf/lib/gcc/xtensa-lx106-elf/4.8.2/libgcc.a(_mulsf3.o)
 .debug_line    0x000000000001dcb2      0x318 /root/ESP8266/esp-open-sdk/xtensa-lx106-elf/lib/gcc/xtensa-lx106-elf/4.8.2/libgcc.a(_divsf3.o)
 .debug_line    0x000000000001dfca      0x114 /root/ESP8266/esp-open-sdk/xtensa-lx106-elf/lib/gcc/xtensa-lx106-elf/4.8.2/libgcc.a(_fixsfsi.o)
 .debug_line    0x000000000001e0de      0x144 /root/ESP8266/esp-open-sdk/xtensa-lx106-elf/lib/gcc/xtensa-lx106-elf/4.8.2/libgcc.a(_fixunssfsi.o)
 .debug_line    0x000000000001e222      0x120 /root/ESP8266/esp-open-sdk/xtensa-lx106-elf/lib/gcc/xtensa-lx106-elf/4.8.2/libgcc.a(_floatsisf.o)
 .debug_line    0x000000000001e342      0x6ba /root/ESP8266/esp-open-sdk/xtensa-lx106-elf/lib/gcc/xtensa-lx106-elf/4.8.2/libgcc.a(_addsubdf3.o)
 .debug_line    0x000000000001e9fc      0x62c /root/ESP8266/esp-open-sdk/xtensa-lx106-elf/lib/gcc/xtensa-lx106-elf/4.8.2/libgcc.a(_muldf3.o)
 .debug_line    0x000000000001f028      0x4d4 /root/ESP8266/esp-open-sdk/xtensa-lx106-elf/lib/gcc/xtensa-lx106-elf/4.8.2/libgcc.a(_divdf3.o)
 .debug_line    0x000000000001f4fc      0x126 /root/ESP8266/esp-open-sdk/xtensa-lx106-elf/lib/gcc/xtensa-lx106-elf/4.8.2/libgcc.a(_fixdfsi.o)
 .debug_line    0x000000000001f622      0x102 /root/ESP8266/esp-open-sdk/xtensa-lx106-elf/lib/gcc/xtensa-lx106-elf/4.8.2/libgcc.a(_floatsidf.o)
 .debug_line    0x000000000001f724      0x1d4 /root/ESP8266/esp-open-sdk/xtensa-lx106-elf/lib/gcc/xtensa-lx106-elf/4.8.2/libgcc.a(_truncdfsf2.o)
 .debug_line    0x000000000001f8f8      0x156 /root/ESP8266/esp-open-sdk/xtensa-lx106-elf/lib/gcc/xtensa-lx106-elf/4.8.2/libgcc.a(_extendsfdf2.o)
 .debug_line    0x000000000001fa4e       0xca /root/ESP8266/esp-open-sdk/xtensa-lx106-elf/lib/gcc/xtensa-lx106-elf/4.8.2/libgcc.a(_muldi3.o)
 .debug_line    0x000000000001fb18       0xc6 /root/ESP8266/esp-open-sdk/xtensa-lx106-elf/lib/gcc/xtensa-lx106-elf/4.8.2/libgcc.a(_popcountsi2.o)
 .debug_line    0x000000000001fbde      0x211 /root/ESP8266/esp-open-sdk/xtensa-lx106-elf/lib/gcc/xtensa-lx106-elf/4.8.2/libgcc.a(_divdi3.o)
 .debug_line    0x000000000001fdef      0x1db /root/ESP8266/esp-open-sdk/xtensa-lx106-elf/lib/gcc/xtensa-lx106-elf/4.8.2/libgcc.a(_udivdi3.o)
 .debug_line    0x000000000001ffca      0x234 /root/ESP8266/esp-open-sdk/xtensa-lx106-elf/lib/gcc/xtensa-lx106-elf/4.8.2/libgcc.a(_umoddi3.o)
 .debug_line    0x00000000000201fe      0x137 /root/ESP8266/esp-open-sdk/xtensa-lx106-elf/lib/gcc/xtensa-lx106-elf/4.8.2/libgcc.a(_umulsidi3.o)
 .debug_line    0x0000000000020335       0x7b /root/ESP8266/esp-open-sdk/xtensa-lx106-elf/lib/gcc/xtensa-lx106-elf/4.8.2/libgcc.a(_popcount_tab.o)
 .debug_line    0x00000000000203b0      0x1d1 ../../libc/xtensa-lx106-elf/lib/libc.a(lib_a-atoi.o)
 .debug_line    0x0000000000020581      0x11a ../../libc/xtensa-lx106-elf/lib/libc.a(lib_a-bzero.o)
 .debug_line    0x000000000002069b      0x1cc ../../libc/xtensa-lx106-elf/lib/libc.a(lib_a-calloc.o)
 .debug_line    0x0000000000020867      0x16d ../../libc/xtensa-lx106-elf/lib/libc.a(lib_a-errno.o)
 .debug_line    0x00000000000209d4      0x14d ../../libc/xtensa-lx106-elf/lib/libc.a(lib_a-impure.o)
 .debug_line    0x0000000000020b21      0x1eb ../../libc/xtensa-lx106-elf/lib/libc.a(lib_a-malloc.o)
 .debug_line    0x0000000000020d0c      0x120 ../../libc/xtensa-lx106-elf/lib/libc.a(lib_a-memcmp.o)
 .debug_line    0x0000000000020e2c      0x355 ../../libc/xtensa-lx106-elf/lib/libc.a(lib_a-memcpy.o)
 .debug_line    0x0000000000021181      0x17a ../../libc/xtensa-lx106-elf/lib/libc.a(lib_a-memset.o)
 .debug_line    0x00000000000212fb      0x280 ../../libc/xtensa-lx106-elf/lib/libc.a(lib_a-mstats.o)
 .debug_line    0x000000000002157b      0x1d9 ../../libc/xtensa-lx106-elf/lib/libc.a(lib_a-nano-callocr.o)
 .debug_line    0x0000000000021754      0x22f ../../libc/xtensa-lx106-elf/lib/libc.a(lib_a-nano-freer.o)
 .debug_line    0x0000000000021983      0x242 ../../libc/xtensa-lx106-elf/lib/libc.a(lib_a-nano-mallinfor.o)
 .debug_line    0x0000000000021bc5      0x28f ../../libc/xtensa-lx106-elf/lib/libc.a(lib_a-nano-mallocr.o)
 .debug_line    0x0000000000021e54      0x16b ../../libc/xtensa-lx106-elf/lib/libc.a(lib_a-nano-malloptr.o)
 .debug_line    0x0000000000021fbf      0x1cc ../../libc/xtensa-lx106-elf/lib/libc.a(lib_a-nano-mallstatsr.o)
 .debug_line    0x000000000002218b      0x232 ../../libc/xtensa-lx106-elf/lib/libc.a(lib_a-printf.o)
 .debug_line    0x00000000000223bd      0x1de ../../libc/xtensa-lx106-elf/lib/libc.a(lib_a-putchar.o)
 .debug_line    0x000000000002259b      0x23c ../../libc/xtensa-lx106-elf/lib/libc.a(lib_a-putc.o)
 .debug_line    0x00000000000227d7      0x278 ../../libc/xtensa-lx106-elf/lib/libc.a(lib_a-puts.o)
 .debug_line    0x0000000000022a4f      0x1d1 ../../libc/xtensa-lx106-elf/lib/libc.a(lib_a-rand.o)
 .debug_line    0x0000000000022c20      0x1cd ../../libc/xtensa-lx106-elf/lib/libc.a(lib_a-realloc.o)
 .debug_line    0x0000000000022ded      0x2ab ../../libc/xtensa-lx106-elf/lib/libc.a(lib_a-sprintf.o)
 .debug_line    0x0000000000023098      0x284 ../../libc/xtensa-lx106-elf/lib/libc.a(lib_a-strcmp.o)
 .debug_line    0x000000000002331c      0x180 ../../libc/xtensa-lx106-elf/lib/libc.a(lib_a-strcpy.o)
 .debug_line    0x000000000002349c      0x12c ../../libc/xtensa-lx106-elf/lib/libc.a(lib_a-strlen.o)
 .debug_line    0x00000000000235c8      0x13e ../../libc/xtensa-lx106-elf/lib/libc.a(lib_a-strncmp.o)
 .debug_line    0x0000000000023706      0x29b ../../libc/xtensa-lx106-elf/lib/libc.a(lib_a-strncpy.o)
 .debug_line    0x00000000000239a1       0xc2 ../../libc/xtensa-lx106-elf/lib/libc.a(lib_a-strrchr.o)
 .debug_line    0x0000000000023a63      0x36c ../../libc/xtensa-lx106-elf/lib/libc.a(lib_a-strtol.o)
 .debug_line    0x0000000000023dcf      0x1ce ../../libc/xtensa-lx106-elf/lib/libc.a(lib_a-syssbrk.o)
 .debug_line    0x0000000000023f9d      0x2a4 ../../libc/xtensa-lx106-elf/lib/libc.a(lib_a-wbuf.o)
 .debug_line    0x0000000000024241      0x2a3 ../../libc/xtensa-lx106-elf/lib/libc.a(lib_a-wsetup.o)
 .debug_line    0x00000000000244e4       0xa3 ../../libc/xtensa-lx106-elf/lib/libc.a(lock.o)
 .debug_line    0x0000000000024587       0x5a ../../libc/xtensa-lx106-elf/lib/libc.a(lib_a-ctype_.o)
 .debug_line    0x00000000000245e1      0x3f4 ../../libc/xtensa-lx106-elf/lib/libc.a(lib_a-fflush.o)
 .debug_line    0x00000000000249d5      0x533 ../../libc/xtensa-lx106-elf/lib/libc.a(lib_a-findfp.o)
 .debug_line    0x0000000000024f08      0x21b ../../libc/xtensa-lx106-elf/lib/libc.a(lib_a-fprintf.o)
 .debug_line    0x0000000000025123      0x51e ../../libc/xtensa-lx106-elf/lib/libc.a(lib_a-fvwrite.o)
 .debug_line    0x0000000000025641      0x271 ../../libc/xtensa-lx106-elf/lib/libc.a(lib_a-fwalk.o)
 .debug_line    0x00000000000258b2      0x2cd ../../libc/xtensa-lx106-elf/lib/libc.a(lib_a-makebuf.o)
 .debug_line    0x0000000000025b7f      0x127 ../../libc/xtensa-lx106-elf/lib/libc.a(lib_a-memchr.o)
 .debug_line    0x0000000000025ca6      0x145 ../../libc/xtensa-lx106-elf/lib/libc.a(lib_a-memmove.o)
 .debug_line    0x0000000000025deb      0x1f1 ../../libc/xtensa-lx106-elf/lib/libc.a(lib_a-nano-reallocr.o)
 .debug_line    0x0000000000025fdc      0x6f8 ../../libc/xtensa-lx106-elf/lib/libc.a(lib_a-nano-svfprintf.o)
 .debug_line    0x00000000000266d4      0x726 ../../libc/xtensa-lx106-elf/lib/libc.a(lib_a-nano-vfprintf_i.o)
 .debug_line    0x0000000000026dfa      0x61f ../../libc/xtensa-lx106-elf/lib/libc.a(lib_a-nano-vfprintf.o)
 .debug_line    0x0000000000027419      0x28d ../../libc/xtensa-lx106-elf/lib/libc.a(lib_a-stdio.o)
 .debug_line    0x00000000000276a6       0xd3 ../../libc/xtensa-lx106-elf/lib/libc.a(lib_a-strchr.o)
 .debug_line    0x0000000000027779      0x1bb ../../libc/xtensa-lx106-elf/lib/libc.a(isatty.o)
 .debug_line    0x0000000000027934      0x2b0 ../../libc/xtensa-lx106-elf/lib/libc.a(lib_a-fclose.o)
 .debug_line    0x0000000000027be4      0x2f5 ../../libc/xtensa-lx106-elf/lib/libc.a(lib_a-fputwc.o)
 .debug_line    0x0000000000027ed9      0x26b ../../libc/xtensa-lx106-elf/lib/libc.a(lib_a-locale.o)
 .debug_line    0x0000000000028144      0x183 ../../libc/xtensa-lx106-elf/lib/libc.a(lib_a-nano-msizer.o)
 .debug_line    0x00000000000282c7      0x213 ../../libc/xtensa-lx106-elf/lib/libc.a(lib_a-wcrtomb.o)
 .debug_line    0x00000000000284da      0x220 ../../libc/xtensa-lx106-elf/lib/libc.a(lib_a-wctomb_r.o)
 .debug_line    0x00000000000286fa      0x22f ./build/core.a(newlib_syscalls.o)

.debug_info     0x0000000000000000    0x4ea38
 .debug_info    0x0000000000000000       0x8d ./build/core.a(exception_vectors.o)
 .debug_info    0x000000000000008d     0x1761 ./build/program.a(http_get_ssl.o)
 .debug_info    0x00000000000017ee     0x1035 ./build/freertos.a(queue.o)
 .debug_info    0x0000000000002823     0x1978 ./build/freertos.a(tasks.o)
 .debug_info    0x000000000000419b      0xead ./build/freertos.a(timers.o)
 .debug_info    0x0000000000005048      0x740 ./build/freertos.a(port.o)
 .debug_info    0x0000000000005788      0x30a ./build/freertos.a(list.o)
 .debug_info    0x0000000000005a92      0x5f2 ./build/lwip.a(esp_interface.o)
 .debug_info    0x0000000000006084      0x83c ./build/lwip.a(netdb.o)
 .debug_info    0x00000000000068c0     0x2aad ./build/lwip.a(sockets.o)
 .debug_info    0x000000000000936d     0x1038 ./build/lwip.a(tcpip.o)
 .debug_info    0x000000000000a3a5     0x25e3 ./build/lwip.a(dhcp.o)
 .debug_info    0x000000000000c988      0xe86 ./build/lwip.a(dns.o)
 .debug_info    0x000000000000d80e      0x1a5 ./build/lwip.a(init.o)
 .debug_info    0x000000000000d9b3      0x1ae ./build/lwip.a(memp.o)
 .debug_info    0x000000000000db61     0x11af ./build/lwip.a(netif.o)
 .debug_info    0x000000000000ed10      0xcbb ./build/lwip.a(pbuf.o)
 .debug_info    0x000000000000f9cb      0x28a ./build/lwip.a(stats.o)
 .debug_info    0x000000000000fc55     0x1dc6 ./build/lwip.a(tcp.o)
 .debug_info    0x0000000000011a1b     0x197a ./build/lwip.a(tcp_out.o)
 .debug_info    0x0000000000013395      0xc82 ./build/lwip.a(timers.o)
 .debug_info    0x0000000000014017     0x1146 ./build/lwip.a(udp.o)
 .debug_info    0x000000000001515d      0xb60 ./build/lwip.a(icmp.o)
 .debug_info    0x0000000000015cbd      0x453 ./build/lwip.a(inet_chksum.o)
 .debug_info    0x0000000000016110      0x615 ./build/lwip.a(ip_addr.o)
 .debug_info    0x0000000000016725      0xe96 ./build/lwip.a(ip.o)
 .debug_info    0x00000000000175bb      0x824 ./build/lwip.a(ip_frag.o)
 .debug_info    0x0000000000017ddf     0x18d8 ./build/lwip.a(etharp.o)
 .debug_info    0x00000000000196b7      0xd52 ./build/lwip.a(sys_arch.o)
 .debug_info    0x000000000001a409     0x19f6 ./build/lwip.a(api_lib.o)
 .debug_info    0x000000000001bdff     0x257c ./build/lwip.a(api_msg.o)
 .debug_info    0x000000000001e37b      0x589 ./build/lwip.a(netbuf.o)
 .debug_info    0x000000000001e904      0x9d0 ./build/lwip.a(raw.o)
 .debug_info    0x000000000001f2d4     0x15ef ./build/lwip.a(tcp_in.o)
 .debug_info    0x00000000000208c3     0x34c3 ./build/axtls.a(tls1.o)
 .debug_info    0x0000000000023d86     0x1403 ./build/axtls.a(tls1_clnt.o)
 .debug_info    0x0000000000025189     0x1421 ./build/axtls.a(tls1_svr.o)
 .debug_info    0x00000000000265aa     0x162d ./build/axtls.a(x509.o)
 .debug_info    0x0000000000027bd7      0x20e ./build/axtls.a(axtls_esp_stubs.o)
 .debug_info    0x0000000000027de5      0xaa4 ./build/axtls.a(aes.o)
 .debug_info    0x0000000000028889     0x2561 ./build/axtls.a(bigint.o)
 .debug_info    0x000000000002adea      0x381 ./build/axtls.a(crypto_misc.o)
 .debug_info    0x000000000002b16b      0x6de ./build/axtls.a(hmac.o)
 .debug_info    0x000000000002b849      0x51d ./build/axtls.a(md5.o)
 .debug_info    0x000000000002bd66      0x299 ./build/axtls.a(rc4.o)
 .debug_info    0x000000000002bfff      0xd5c ./build/axtls.a(rsa.o)
 .debug_info    0x000000000002cd5b      0x3c2 ./build/axtls.a(sha1.o)
 .debug_info    0x000000000002d11d      0x476 ./build/axtls.a(sha256.o)
 .debug_info    0x000000000002d593      0x36e ./build/axtls.a(sha384.o)
 .debug_info    0x000000000002d901      0x4f4 ./build/axtls.a(sha512.o)
 .debug_info    0x000000000002ddf5     0x1854 ./build/axtls.a(asn1.o)
 .debug_info    0x000000000002f649      0xdc7 ./build/axtls.a(loader.o)
 .debug_info    0x0000000000030410      0x122 ./build/core.a(sdk_compat.o)
 .debug_info    0x0000000000030532       0xf1 /root/ESP8266/esp-open-sdk/xtensa-lx106-elf/lib/gcc/xtensa-lx106-elf/4.8.2/libgcc.a(_divsi3.o)
 .debug_info    0x0000000000030623       0xf1 /root/ESP8266/esp-open-sdk/xtensa-lx106-elf/lib/gcc/xtensa-lx106-elf/4.8.2/libgcc.a(_modsi3.o)
 .debug_info    0x0000000000030714       0xf1 /root/ESP8266/esp-open-sdk/xtensa-lx106-elf/lib/gcc/xtensa-lx106-elf/4.8.2/libgcc.a(_udivsi3.o)
 .debug_info    0x0000000000030805       0xf1 /root/ESP8266/esp-open-sdk/xtensa-lx106-elf/lib/gcc/xtensa-lx106-elf/4.8.2/libgcc.a(_umodsi3.o)
 .debug_info    0x00000000000308f6       0xf1 /root/ESP8266/esp-open-sdk/xtensa-lx106-elf/lib/gcc/xtensa-lx106-elf/4.8.2/libgcc.a(_ashrdi3.o)
 .debug_info    0x00000000000309e7       0xf2 /root/ESP8266/esp-open-sdk/xtensa-lx106-elf/lib/gcc/xtensa-lx106-elf/4.8.2/libgcc.a(_addsubsf3.o)
 .debug_info    0x0000000000030ad9       0xf2 /root/ESP8266/esp-open-sdk/xtensa-lx106-elf/lib/gcc/xtensa-lx106-elf/4.8.2/libgcc.a(_mulsf3.o)
 .debug_info    0x0000000000030bcb       0xf2 /root/ESP8266/esp-open-sdk/xtensa-lx106-elf/lib/gcc/xtensa-lx106-elf/4.8.2/libgcc.a(_divsf3.o)
 .debug_info    0x0000000000030cbd       0xf2 /root/ESP8266/esp-open-sdk/xtensa-lx106-elf/lib/gcc/xtensa-lx106-elf/4.8.2/libgcc.a(_fixsfsi.o)
 .debug_info    0x0000000000030daf       0xf2 /root/ESP8266/esp-open-sdk/xtensa-lx106-elf/lib/gcc/xtensa-lx106-elf/4.8.2/libgcc.a(_fixunssfsi.o)
 .debug_info    0x0000000000030ea1       0xf2 /root/ESP8266/esp-open-sdk/xtensa-lx106-elf/lib/gcc/xtensa-lx106-elf/4.8.2/libgcc.a(_floatsisf.o)
 .debug_info    0x0000000000030f93       0xf2 /root/ESP8266/esp-open-sdk/xtensa-lx106-elf/lib/gcc/xtensa-lx106-elf/4.8.2/libgcc.a(_addsubdf3.o)
 .debug_info    0x0000000000031085       0xf2 /root/ESP8266/esp-open-sdk/xtensa-lx106-elf/lib/gcc/xtensa-lx106-elf/4.8.2/libgcc.a(_muldf3.o)
 .debug_info    0x0000000000031177       0xf2 /root/ESP8266/esp-open-sdk/xtensa-lx106-elf/lib/gcc/xtensa-lx106-elf/4.8.2/libgcc.a(_divdf3.o)
 .debug_info    0x0000000000031269       0xf2 /root/ESP8266/esp-open-sdk/xtensa-lx106-elf/lib/gcc/xtensa-lx106-elf/4.8.2/libgcc.a(_fixdfsi.o)
 .debug_info    0x000000000003135b       0xf2 /root/ESP8266/esp-open-sdk/xtensa-lx106-elf/lib/gcc/xtensa-lx106-elf/4.8.2/libgcc.a(_floatsidf.o)
 .debug_info    0x000000000003144d       0xf2 /root/ESP8266/esp-open-sdk/xtensa-lx106-elf/lib/gcc/xtensa-lx106-elf/4.8.2/libgcc.a(_truncdfsf2.o)
 .debug_info    0x000000000003153f       0xf2 /root/ESP8266/esp-open-sdk/xtensa-lx106-elf/lib/gcc/xtensa-lx106-elf/4.8.2/libgcc.a(_extendsfdf2.o)
 .debug_info    0x0000000000031631      0x174 /root/ESP8266/esp-open-sdk/xtensa-lx106-elf/lib/gcc/xtensa-lx106-elf/4.8.2/libgcc.a(_muldi3.o)
 .debug_info    0x00000000000317a5       0xff /root/ESP8266/esp-open-sdk/xtensa-lx106-elf/lib/gcc/xtensa-lx106-elf/4.8.2/libgcc.a(_popcountsi2.o)
 .debug_info    0x00000000000318a4      0x60c /root/ESP8266/esp-open-sdk/xtensa-lx106-elf/lib/gcc/xtensa-lx106-elf/4.8.2/libgcc.a(_divdi3.o)
 .debug_info    0x0000000000031eb0      0x5da /root/ESP8266/esp-open-sdk/xtensa-lx106-elf/lib/gcc/xtensa-lx106-elf/4.8.2/libgcc.a(_udivdi3.o)
 .debug_info    0x000000000003248a      0x61d /root/ESP8266/esp-open-sdk/xtensa-lx106-elf/lib/gcc/xtensa-lx106-elf/4.8.2/libgcc.a(_umoddi3.o)
 .debug_info    0x0000000000032aa7       0xf1 /root/ESP8266/esp-open-sdk/xtensa-lx106-elf/lib/gcc/xtensa-lx106-elf/4.8.2/libgcc.a(_umulsidi3.o)
 .debug_info    0x0000000000032b98       0xab /root/ESP8266/esp-open-sdk/xtensa-lx106-elf/lib/gcc/xtensa-lx106-elf/4.8.2/libgcc.a(_popcount_tab.o)
 .debug_info    0x0000000000032c43      0x94c ../../libc/xtensa-lx106-elf/lib/libc.a(lib_a-atoi.o)
 .debug_info    0x000000000003358f       0xca ../../libc/xtensa-lx106-elf/lib/libc.a(lib_a-bzero.o)
 .debug_info    0x0000000000033659      0x8ee ../../libc/xtensa-lx106-elf/lib/libc.a(lib_a-calloc.o)
 .debug_info    0x0000000000033f47      0x894 ../../libc/xtensa-lx106-elf/lib/libc.a(lib_a-errno.o)
 .debug_info    0x00000000000347db      0x89f ../../libc/xtensa-lx106-elf/lib/libc.a(lib_a-impure.o)
 .debug_info    0x000000000003507a      0x920 ../../libc/xtensa-lx106-elf/lib/libc.a(lib_a-malloc.o)
 .debug_info    0x000000000003599a       0xef ../../libc/xtensa-lx106-elf/lib/libc.a(lib_a-memcmp.o)
 .debug_info    0x0000000000035a89       0xac ../../libc/xtensa-lx106-elf/lib/libc.a(lib_a-memcpy.o)
 .debug_info    0x0000000000035b35       0xac ../../libc/xtensa-lx106-elf/lib/libc.a(lib_a-memset.o)
 .debug_info    0x0000000000035be1      0xaa4 ../../libc/xtensa-lx106-elf/lib/libc.a(lib_a-mstats.o)
 .debug_info    0x0000000000036685      0x947 ../../libc/xtensa-lx106-elf/lib/libc.a(lib_a-nano-callocr.o)
 .debug_info    0x0000000000036fcc      0x97d ../../libc/xtensa-lx106-elf/lib/libc.a(lib_a-nano-freer.o)
 .debug_info    0x0000000000037949      0xa4d ../../libc/xtensa-lx106-elf/lib/libc.a(lib_a-nano-mallinfor.o)
 .debug_info    0x0000000000038396      0xa58 ../../libc/xtensa-lx106-elf/lib/libc.a(lib_a-nano-mallocr.o)
 .debug_info    0x0000000000038dee      0x8b0 ../../libc/xtensa-lx106-elf/lib/libc.a(lib_a-nano-malloptr.o)
 .debug_info    0x000000000003969e      0x9d9 ../../libc/xtensa-lx106-elf/lib/libc.a(lib_a-nano-mallstatsr.o)
 .debug_info    0x000000000003a077      0x9c6 ../../libc/xtensa-lx106-elf/lib/libc.a(lib_a-printf.o)
 .debug_info    0x000000000003aa3d      0x940 ../../libc/xtensa-lx106-elf/lib/libc.a(lib_a-putchar.o)
 .debug_info    0x000000000003b37d      0x9e7 ../../libc/xtensa-lx106-elf/lib/libc.a(lib_a-putc.o)
 .debug_info    0x000000000003bd64      0xa75 ../../libc/xtensa-lx106-elf/lib/libc.a(lib_a-puts.o)
 .debug_info    0x000000000003c7d9      0x8d6 ../../libc/xtensa-lx106-elf/lib/libc.a(lib_a-rand.o)
 .debug_info    0x000000000003d0af      0x8ee ../../libc/xtensa-lx106-elf/lib/libc.a(lib_a-realloc.o)
 .debug_info    0x000000000003d99d      0xa09 ../../libc/xtensa-lx106-elf/lib/libc.a(lib_a-sprintf.o)
 .debug_info    0x000000000003e3a6       0xac ../../libc/xtensa-lx106-elf/lib/libc.a(lib_a-strcmp.o)
 .debug_info    0x000000000003e452       0xac ../../libc/xtensa-lx106-elf/lib/libc.a(lib_a-strcpy.o)
 .debug_info    0x000000000003e4fe       0xac ../../libc/xtensa-lx106-elf/lib/libc.a(lib_a-strlen.o)
 .debug_info    0x000000000003e5aa       0xcf ../../libc/xtensa-lx106-elf/lib/libc.a(lib_a-strncmp.o)
 .debug_info    0x000000000003e679       0xad ../../libc/xtensa-lx106-elf/lib/libc.a(lib_a-strncpy.o)
 .debug_info    0x000000000003e726      0x101 ../../libc/xtensa-lx106-elf/lib/libc.a(lib_a-strrchr.o)
 .debug_info    0x000000000003e827      0x9b4 ../../libc/xtensa-lx106-elf/lib/libc.a(lib_a-strtol.o)
 .debug_info    0x000000000003f1db      0x8d4 ../../libc/xtensa-lx106-elf/lib/libc.a(lib_a-syssbrk.o)
 .debug_info    0x000000000003faaf      0x9e2 ../../libc/xtensa-lx106-elf/lib/libc.a(lib_a-wbuf.o)
 .debug_info    0x0000000000040491      0x947 ../../libc/xtensa-lx106-elf/lib/libc.a(lib_a-wsetup.o)
 .debug_info    0x0000000000040dd8       0x86 ../../libc/xtensa-lx106-elf/lib/libc.a(lock.o)
 .debug_info    0x0000000000040e5e       0x6f ../../libc/xtensa-lx106-elf/lib/libc.a(lib_a-ctype_.o)
 .debug_info    0x0000000000040ecd      0xb74 ../../libc/xtensa-lx106-elf/lib/libc.a(lib_a-fflush.o)
 .debug_info    0x0000000000041a41      0xed4 ../../libc/xtensa-lx106-elf/lib/libc.a(lib_a-findfp.o)
 .debug_info    0x0000000000042915      0x9dd ../../libc/xtensa-lx106-elf/lib/libc.a(lib_a-fprintf.o)
 .debug_info    0x00000000000432f2      0xc30 ../../libc/xtensa-lx106-elf/lib/libc.a(lib_a-fvwrite.o)
 .debug_info    0x0000000000043f22      0x9a3 ../../libc/xtensa-lx106-elf/lib/libc.a(lib_a-fwalk.o)
 .debug_info    0x00000000000448c5      0xaf1 ../../libc/xtensa-lx106-elf/lib/libc.a(lib_a-makebuf.o)
 .debug_info    0x00000000000453b6       0xf8 ../../libc/xtensa-lx106-elf/lib/libc.a(lib_a-memchr.o)
 .debug_info    0x00000000000454ae      0x102 ../../libc/xtensa-lx106-elf/lib/libc.a(lib_a-memmove.o)
 .debug_info    0x00000000000455b0      0xa12 ../../libc/xtensa-lx106-elf/lib/libc.a(lib_a-nano-reallocr.o)
 .debug_info    0x0000000000045fc2      0xecf ../../libc/xtensa-lx106-elf/lib/libc.a(lib_a-nano-svfprintf.o)
 .debug_info    0x0000000000046e91      0xc82 ../../libc/xtensa-lx106-elf/lib/libc.a(lib_a-nano-vfprintf_i.o)
 .debug_info    0x0000000000047b13      0xfe4 ../../libc/xtensa-lx106-elf/lib/libc.a(lib_a-nano-vfprintf.o)
 .debug_info    0x0000000000048af7      0xb94 ../../libc/xtensa-lx106-elf/lib/libc.a(lib_a-stdio.o)
 .debug_info    0x000000000004968b       0xe3 ../../libc/xtensa-lx106-elf/lib/libc.a(lib_a-strchr.o)
 .debug_info    0x000000000004976e      0xa58 ../../libc/xtensa-lx106-elf/lib/libc.a(isatty.o)
 .debug_info    0x000000000004a1c6      0xa88 ../../libc/xtensa-lx106-elf/lib/libc.a(lib_a-fclose.o)
 .debug_info    0x000000000004ac4e      0xb1b ../../libc/xtensa-lx106-elf/lib/libc.a(lib_a-fputwc.o)
 .debug_info    0x000000000004b769      0xbed ../../libc/xtensa-lx106-elf/lib/libc.a(lib_a-locale.o)
 .debug_info    0x000000000004c356      0x918 ../../libc/xtensa-lx106-elf/lib/libc.a(lib_a-nano-msizer.o)
 .debug_info    0x000000000004cc6e      0x9e3 ../../libc/xtensa-lx106-elf/lib/libc.a(lib_a-wcrtomb.o)
 .debug_info    0x000000000004d651      0x9c0 ../../libc/xtensa-lx106-elf/lib/libc.a(lib_a-wctomb_r.o)
 .debug_info    0x000000000004e011      0xa27 ./build/core.a(newlib_syscalls.o)

.debug_abbrev   0x0000000000000000     0xee7a
 .debug_abbrev  0x0000000000000000       0x14 ./build/core.a(exception_vectors.o)
 .debug_abbrev  0x0000000000000014      0x2d7 ./build/program.a(http_get_ssl.o)
 .debug_abbrev  0x00000000000002eb      0x2d3 ./build/freertos.a(queue.o)
 .debug_abbrev  0x00000000000005be      0x3ee ./build/freertos.a(tasks.o)
 .debug_abbrev  0x00000000000009ac      0x326 ./build/freertos.a(timers.o)
 .debug_abbrev  0x0000000000000cd2      0x3ba ./build/freertos.a(port.o)
 .debug_abbrev  0x000000000000108c      0x113 ./build/freertos.a(list.o)
 .debug_abbrev  0x000000000000119f      0x188 ./build/lwip.a(esp_interface.o)
 .debug_abbrev  0x0000000000001327      0x244 ./build/lwip.a(netdb.o)
 .debug_abbrev  0x000000000000156b      0x3f4 ./build/lwip.a(sockets.o)
 .debug_abbrev  0x000000000000195f      0x2b6 ./build/lwip.a(tcpip.o)
 .debug_abbrev  0x0000000000001c15      0x46d ./build/lwip.a(dhcp.o)
 .debug_abbrev  0x0000000000002082      0x32f ./build/lwip.a(dns.o)
 .debug_abbrev  0x00000000000023b1       0xba ./build/lwip.a(init.o)
 .debug_abbrev  0x000000000000246b       0x96 ./build/lwip.a(memp.o)
 .debug_abbrev  0x0000000000002501      0x374 ./build/lwip.a(netif.o)
 .debug_abbrev  0x0000000000002875      0x2f8 ./build/lwip.a(pbuf.o)
 .debug_abbrev  0x0000000000002b6d       0xa3 ./build/lwip.a(stats.o)
 .debug_abbrev  0x0000000000002c10      0x4af ./build/lwip.a(tcp.o)
 .debug_abbrev  0x00000000000030bf      0x3dc ./build/lwip.a(tcp_out.o)
 .debug_abbrev  0x000000000000349b      0x263 ./build/lwip.a(timers.o)
 .debug_abbrev  0x00000000000036fe      0x2eb ./build/lwip.a(udp.o)
 .debug_abbrev  0x00000000000039e9      0x256 ./build/lwip.a(icmp.o)
 .debug_abbrev  0x0000000000003c3f      0x15e ./build/lwip.a(inet_chksum.o)
 .debug_abbrev  0x0000000000003d9d      0x1c9 ./build/lwip.a(ip_addr.o)
 .debug_abbrev  0x0000000000003f66      0x246 ./build/lwip.a(ip.o)
 .debug_abbrev  0x00000000000041ac      0x19a ./build/lwip.a(ip_frag.o)
 .debug_abbrev  0x0000000000004346      0x3bb ./build/lwip.a(etharp.o)
 .debug_abbrev  0x0000000000004701      0x28c ./build/lwip.a(sys_arch.o)
 .debug_abbrev  0x000000000000498d      0x310 ./build/lwip.a(api_lib.o)
 .debug_abbrev  0x0000000000004c9d      0x41f ./build/lwip.a(api_msg.o)
 .debug_abbrev  0x00000000000050bc      0x19c ./build/lwip.a(netbuf.o)
 .debug_abbrev  0x0000000000005258      0x266 ./build/lwip.a(raw.o)
 .debug_abbrev  0x00000000000054be      0x38c ./build/lwip.a(tcp_in.o)
 .debug_abbrev  0x000000000000584a      0x53e ./build/axtls.a(tls1.o)
 .debug_abbrev  0x0000000000005d88      0x35d ./build/axtls.a(tls1_clnt.o)
 .debug_abbrev  0x00000000000060e5      0x3a3 ./build/axtls.a(tls1_svr.o)
 .debug_abbrev  0x0000000000006488      0x372 ./build/axtls.a(x509.o)
 .debug_abbrev  0x00000000000067fa      0x10f ./build/axtls.a(axtls_esp_stubs.o)
 .debug_abbrev  0x0000000000006909      0x2bb ./build/axtls.a(aes.o)
 .debug_abbrev  0x0000000000006bc4      0x405 ./build/axtls.a(bigint.o)
 .debug_abbrev  0x0000000000006fc9      0x21a ./build/axtls.a(crypto_misc.o)
 .debug_abbrev  0x00000000000071e3      0x15c ./build/axtls.a(hmac.o)
 .debug_abbrev  0x000000000000733f      0x23a ./build/axtls.a(md5.o)
 .debug_abbrev  0x0000000000007579      0x10c ./build/axtls.a(rc4.o)
 .debug_abbrev  0x0000000000007685      0x24a ./build/axtls.a(rsa.o)
 .debug_abbrev  0x00000000000078cf      0x1ac ./build/axtls.a(sha1.o)
 .debug_abbrev  0x0000000000007a7b      0x16c ./build/axtls.a(sha256.o)
 .debug_abbrev  0x0000000000007be7      0x17d ./build/axtls.a(sha384.o)
 .debug_abbrev  0x0000000000007d64      0x228 ./build/axtls.a(sha512.o)
 .debug_abbrev  0x0000000000007f8c      0x3da ./build/axtls.a(asn1.o)
 .debug_abbrev  0x0000000000008366      0x2ef ./build/axtls.a(loader.o)
 .debug_abbrev  0x0000000000008655       0xe2 ./build/core.a(sdk_compat.o)
 .debug_abbrev  0x0000000000008737       0x14 /root/ESP8266/esp-open-sdk/xtensa-lx106-elf/lib/gcc/xtensa-lx106-elf/4.8.2/libgcc.a(_divsi3.o)
 .debug_abbrev  0x000000000000874b       0x14 /root/ESP8266/esp-open-sdk/xtensa-lx106-elf/lib/gcc/xtensa-lx106-elf/4.8.2/libgcc.a(_modsi3.o)
 .debug_abbrev  0x000000000000875f       0x14 /root/ESP8266/esp-open-sdk/xtensa-lx106-elf/lib/gcc/xtensa-lx106-elf/4.8.2/libgcc.a(_udivsi3.o)
 .debug_abbrev  0x0000000000008773       0x14 /root/ESP8266/esp-open-sdk/xtensa-lx106-elf/lib/gcc/xtensa-lx106-elf/4.8.2/libgcc.a(_umodsi3.o)
 .debug_abbrev  0x0000000000008787       0x14 /root/ESP8266/esp-open-sdk/xtensa-lx106-elf/lib/gcc/xtensa-lx106-elf/4.8.2/libgcc.a(_ashrdi3.o)
 .debug_abbrev  0x000000000000879b       0x14 /root/ESP8266/esp-open-sdk/xtensa-lx106-elf/lib/gcc/xtensa-lx106-elf/4.8.2/libgcc.a(_addsubsf3.o)
 .debug_abbrev  0x00000000000087af       0x14 /root/ESP8266/esp-open-sdk/xtensa-lx106-elf/lib/gcc/xtensa-lx106-elf/4.8.2/libgcc.a(_mulsf3.o)
 .debug_abbrev  0x00000000000087c3       0x14 /root/ESP8266/esp-open-sdk/xtensa-lx106-elf/lib/gcc/xtensa-lx106-elf/4.8.2/libgcc.a(_divsf3.o)
 .debug_abbrev  0x00000000000087d7       0x14 /root/ESP8266/esp-open-sdk/xtensa-lx106-elf/lib/gcc/xtensa-lx106-elf/4.8.2/libgcc.a(_fixsfsi.o)
 .debug_abbrev  0x00000000000087eb       0x14 /root/ESP8266/esp-open-sdk/xtensa-lx106-elf/lib/gcc/xtensa-lx106-elf/4.8.2/libgcc.a(_fixunssfsi.o)
 .debug_abbrev  0x00000000000087ff       0x14 /root/ESP8266/esp-open-sdk/xtensa-lx106-elf/lib/gcc/xtensa-lx106-elf/4.8.2/libgcc.a(_floatsisf.o)
 .debug_abbrev  0x0000000000008813       0x14 /root/ESP8266/esp-open-sdk/xtensa-lx106-elf/lib/gcc/xtensa-lx106-elf/4.8.2/libgcc.a(_addsubdf3.o)
 .debug_abbrev  0x0000000000008827       0x14 /root/ESP8266/esp-open-sdk/xtensa-lx106-elf/lib/gcc/xtensa-lx106-elf/4.8.2/libgcc.a(_muldf3.o)
 .debug_abbrev  0x000000000000883b       0x14 /root/ESP8266/esp-open-sdk/xtensa-lx106-elf/lib/gcc/xtensa-lx106-elf/4.8.2/libgcc.a(_divdf3.o)
 .debug_abbrev  0x000000000000884f       0x14 /root/ESP8266/esp-open-sdk/xtensa-lx106-elf/lib/gcc/xtensa-lx106-elf/4.8.2/libgcc.a(_fixdfsi.o)
 .debug_abbrev  0x0000000000008863       0x14 /root/ESP8266/esp-open-sdk/xtensa-lx106-elf/lib/gcc/xtensa-lx106-elf/4.8.2/libgcc.a(_floatsidf.o)
 .debug_abbrev  0x0000000000008877       0x14 /root/ESP8266/esp-open-sdk/xtensa-lx106-elf/lib/gcc/xtensa-lx106-elf/4.8.2/libgcc.a(_truncdfsf2.o)
 .debug_abbrev  0x000000000000888b       0x14 /root/ESP8266/esp-open-sdk/xtensa-lx106-elf/lib/gcc/xtensa-lx106-elf/4.8.2/libgcc.a(_extendsfdf2.o)
 .debug_abbrev  0x000000000000889f       0xfd /root/ESP8266/esp-open-sdk/xtensa-lx106-elf/lib/gcc/xtensa-lx106-elf/4.8.2/libgcc.a(_muldi3.o)
 .debug_abbrev  0x000000000000899c       0x9b /root/ESP8266/esp-open-sdk/xtensa-lx106-elf/lib/gcc/xtensa-lx106-elf/4.8.2/libgcc.a(_popcountsi2.o)
 .debug_abbrev  0x0000000000008a37      0x1a3 /root/ESP8266/esp-open-sdk/xtensa-lx106-elf/lib/gcc/xtensa-lx106-elf/4.8.2/libgcc.a(_divdi3.o)
 .debug_abbrev  0x0000000000008bda      0x194 /root/ESP8266/esp-open-sdk/xtensa-lx106-elf/lib/gcc/xtensa-lx106-elf/4.8.2/libgcc.a(_udivdi3.o)
 .debug_abbrev  0x0000000000008d6e      0x1a3 /root/ESP8266/esp-open-sdk/xtensa-lx106-elf/lib/gcc/xtensa-lx106-elf/4.8.2/libgcc.a(_umoddi3.o)
 .debug_abbrev  0x0000000000008f11       0x14 /root/ESP8266/esp-open-sdk/xtensa-lx106-elf/lib/gcc/xtensa-lx106-elf/4.8.2/libgcc.a(_umulsidi3.o)
 .debug_abbrev  0x0000000000008f25       0x5d /root/ESP8266/esp-open-sdk/xtensa-lx106-elf/lib/gcc/xtensa-lx106-elf/4.8.2/libgcc.a(_popcount_tab.o)
 .debug_abbrev  0x0000000000008f82      0x1ce ../../libc/xtensa-lx106-elf/lib/libc.a(lib_a-atoi.o)
 .debug_abbrev  0x0000000000009150       0x8c ../../libc/xtensa-lx106-elf/lib/libc.a(lib_a-bzero.o)
 .debug_abbrev  0x00000000000091dc      0x1d9 ../../libc/xtensa-lx106-elf/lib/libc.a(lib_a-calloc.o)
 .debug_abbrev  0x00000000000093b5      0x18f ../../libc/xtensa-lx106-elf/lib/libc.a(lib_a-errno.o)
 .debug_abbrev  0x0000000000009544      0x180 ../../libc/xtensa-lx106-elf/lib/libc.a(lib_a-impure.o)
 .debug_abbrev  0x00000000000096c4      0x1f7 ../../libc/xtensa-lx106-elf/lib/libc.a(lib_a-malloc.o)
 .debug_abbrev  0x00000000000098bb       0x8e ../../libc/xtensa-lx106-elf/lib/libc.a(lib_a-memcmp.o)
 .debug_abbrev  0x0000000000009949       0x14 ../../libc/xtensa-lx106-elf/lib/libc.a(lib_a-memcpy.o)
 .debug_abbrev  0x000000000000995d       0x14 ../../libc/xtensa-lx106-elf/lib/libc.a(lib_a-memset.o)
 .debug_abbrev  0x0000000000009971      0x22b ../../libc/xtensa-lx106-elf/lib/libc.a(lib_a-mstats.o)
 .debug_abbrev  0x0000000000009b9c      0x1f9 ../../libc/xtensa-lx106-elf/lib/libc.a(lib_a-nano-callocr.o)
 .debug_abbrev  0x0000000000009d95      0x213 ../../libc/xtensa-lx106-elf/lib/libc.a(lib_a-nano-freer.o)
 .debug_abbrev  0x0000000000009fa8      0x220 ../../libc/xtensa-lx106-elf/lib/libc.a(lib_a-nano-mallinfor.o)
 .debug_abbrev  0x000000000000a1c8      0x2a3 ../../libc/xtensa-lx106-elf/lib/libc.a(lib_a-nano-mallocr.o)
 .debug_abbrev  0x000000000000a46b      0x19c ../../libc/xtensa-lx106-elf/lib/libc.a(lib_a-nano-malloptr.o)
 .debug_abbrev  0x000000000000a607      0x202 ../../libc/xtensa-lx106-elf/lib/libc.a(lib_a-nano-mallstatsr.o)
 .debug_abbrev  0x000000000000a809      0x20b ../../libc/xtensa-lx106-elf/lib/libc.a(lib_a-printf.o)
 .debug_abbrev  0x000000000000aa14      0x1f7 ../../libc/xtensa-lx106-elf/lib/libc.a(lib_a-putchar.o)
 .debug_abbrev  0x000000000000ac0b      0x233 ../../libc/xtensa-lx106-elf/lib/libc.a(lib_a-putc.o)
 .debug_abbrev  0x000000000000ae3e      0x24b ../../libc/xtensa-lx106-elf/lib/libc.a(lib_a-puts.o)
 .debug_abbrev  0x000000000000b089      0x1c9 ../../libc/xtensa-lx106-elf/lib/libc.a(lib_a-rand.o)
 .debug_abbrev  0x000000000000b252      0x1d9 ../../libc/xtensa-lx106-elf/lib/libc.a(lib_a-realloc.o)
 .debug_abbrev  0x000000000000b42b      0x1fc ../../libc/xtensa-lx106-elf/lib/libc.a(lib_a-sprintf.o)
 .debug_abbrev  0x000000000000b627       0x14 ../../libc/xtensa-lx106-elf/lib/libc.a(lib_a-strcmp.o)
 .debug_abbrev  0x000000000000b63b       0x14 ../../libc/xtensa-lx106-elf/lib/libc.a(lib_a-strcpy.o)
 .debug_abbrev  0x000000000000b64f       0x14 ../../libc/xtensa-lx106-elf/lib/libc.a(lib_a-strlen.o)
 .debug_abbrev  0x000000000000b663       0x70 ../../libc/xtensa-lx106-elf/lib/libc.a(lib_a-strncmp.o)
 .debug_abbrev  0x000000000000b6d3       0x14 ../../libc/xtensa-lx106-elf/lib/libc.a(lib_a-strncpy.o)
 .debug_abbrev  0x000000000000b6e7       0xb2 ../../libc/xtensa-lx106-elf/lib/libc.a(lib_a-strrchr.o)
 .debug_abbrev  0x000000000000b799      0x211 ../../libc/xtensa-lx106-elf/lib/libc.a(lib_a-strtol.o)
 .debug_abbrev  0x000000000000b9aa      0x1ca ../../libc/xtensa-lx106-elf/lib/libc.a(lib_a-syssbrk.o)
 .debug_abbrev  0x000000000000bb74      0x244 ../../libc/xtensa-lx106-elf/lib/libc.a(lib_a-wbuf.o)
 .debug_abbrev  0x000000000000bdb8      0x21e ../../libc/xtensa-lx106-elf/lib/libc.a(lib_a-wsetup.o)
 .debug_abbrev  0x000000000000bfd6       0x87 ../../libc/xtensa-lx106-elf/lib/libc.a(lock.o)
 .debug_abbrev  0x000000000000c05d       0x4e ../../libc/xtensa-lx106-elf/lib/libc.a(lib_a-ctype_.o)
 .debug_abbrev  0x000000000000c0ab      0x2d4 ../../libc/xtensa-lx106-elf/lib/libc.a(lib_a-fflush.o)
 .debug_abbrev  0x000000000000c37f      0x324 ../../libc/xtensa-lx106-elf/lib/libc.a(lib_a-findfp.o)
 .debug_abbrev  0x000000000000c6a3      0x1fa ../../libc/xtensa-lx106-elf/lib/libc.a(lib_a-fprintf.o)
 .debug_abbrev  0x000000000000c89d      0x249 ../../libc/xtensa-lx106-elf/lib/libc.a(lib_a-fvwrite.o)
 .debug_abbrev  0x000000000000cae6      0x1c2 ../../libc/xtensa-lx106-elf/lib/libc.a(lib_a-fwalk.o)
 .debug_abbrev  0x000000000000cca8      0x21b ../../libc/xtensa-lx106-elf/lib/libc.a(lib_a-makebuf.o)
 .debug_abbrev  0x000000000000cec3       0xab ../../libc/xtensa-lx106-elf/lib/libc.a(lib_a-memchr.o)
 .debug_abbrev  0x000000000000cf6e       0x9c ../../libc/xtensa-lx106-elf/lib/libc.a(lib_a-memmove.o)
 .debug_abbrev  0x000000000000d00a      0x216 ../../libc/xtensa-lx106-elf/lib/libc.a(lib_a-nano-reallocr.o)
 .debug_abbrev  0x000000000000d220      0x2c6 ../../libc/xtensa-lx106-elf/lib/libc.a(lib_a-nano-svfprintf.o)
 .debug_abbrev  0x000000000000d4e6      0x265 ../../libc/xtensa-lx106-elf/lib/libc.a(lib_a-nano-vfprintf_i.o)
 .debug_abbrev  0x000000000000d74b      0x326 ../../libc/xtensa-lx106-elf/lib/libc.a(lib_a-nano-vfprintf.o)
 .debug_abbrev  0x000000000000da71      0x22b ../../libc/xtensa-lx106-elf/lib/libc.a(lib_a-stdio.o)
 .debug_abbrev  0x000000000000dc9c       0x83 ../../libc/xtensa-lx106-elf/lib/libc.a(lib_a-strchr.o)
 .debug_abbrev  0x000000000000dd1f      0x1ca ../../libc/xtensa-lx106-elf/lib/libc.a(isatty.o)
 .debug_abbrev  0x000000000000dee9      0x27a ../../libc/xtensa-lx106-elf/lib/libc.a(lib_a-fclose.o)
 .debug_abbrev  0x000000000000e163      0x268 ../../libc/xtensa-lx106-elf/lib/libc.a(lib_a-fputwc.o)
 .debug_abbrev  0x000000000000e3cb      0x295 ../../libc/xtensa-lx106-elf/lib/libc.a(lib_a-locale.o)
 .debug_abbrev  0x000000000000e660      0x1bc ../../libc/xtensa-lx106-elf/lib/libc.a(lib_a-nano-msizer.o)
 .debug_abbrev  0x000000000000e81c      0x20d ../../libc/xtensa-lx106-elf/lib/libc.a(lib_a-wcrtomb.o)
 .debug_abbrev  0x000000000000ea29      0x203 ../../libc/xtensa-lx106-elf/lib/libc.a(lib_a-wctomb_r.o)
 .debug_abbrev  0x000000000000ec2c      0x24e ./build/core.a(newlib_syscalls.o)

.debug_aranges  0x0000000000000000     0x1188
 .debug_aranges
                0x0000000000000000       0x20 ./build/core.a(exception_vectors.o)
 .debug_aranges
                0x0000000000000020       0x20 ./build/program.a(http_get_ssl.o)
 .debug_aranges
                0x0000000000000040       0x40 ./build/freertos.a(queue.o)
 .debug_aranges
                0x0000000000000080       0x70 ./build/freertos.a(tasks.o)
 .debug_aranges
                0x00000000000000f0       0x20 ./build/freertos.a(timers.o)
 .debug_aranges
                0x0000000000000110       0x50 ./build/freertos.a(port.o)
 .debug_aranges
                0x0000000000000160       0x38 ./build/freertos.a(list.o)
 .debug_aranges
                0x0000000000000198       0x20 ./build/lwip.a(esp_interface.o)
 .debug_aranges
                0x00000000000001b8       0x20 ./build/lwip.a(netdb.o)
 .debug_aranges
                0x00000000000001d8       0x20 ./build/lwip.a(sockets.o)
 .debug_aranges
                0x00000000000001f8       0x20 ./build/lwip.a(tcpip.o)
 .debug_aranges
                0x0000000000000218       0x20 ./build/lwip.a(dhcp.o)
 .debug_aranges
                0x0000000000000238       0x20 ./build/lwip.a(dns.o)
 .debug_aranges
                0x0000000000000258       0x20 ./build/lwip.a(init.o)
 .debug_aranges
                0x0000000000000278       0x18 ./build/lwip.a(memp.o)
 .debug_aranges
                0x0000000000000290       0x20 ./build/lwip.a(netif.o)
 .debug_aranges
                0x00000000000002b0       0x20 ./build/lwip.a(pbuf.o)
 .debug_aranges
                0x00000000000002d0       0x20 ./build/lwip.a(stats.o)
 .debug_aranges
                0x00000000000002f0       0x20 ./build/lwip.a(tcp.o)
 .debug_aranges
                0x0000000000000310       0x20 ./build/lwip.a(tcp_out.o)
 .debug_aranges
                0x0000000000000330       0x20 ./build/lwip.a(timers.o)
 .debug_aranges
                0x0000000000000350       0x20 ./build/lwip.a(udp.o)
 .debug_aranges
                0x0000000000000370       0x20 ./build/lwip.a(icmp.o)
 .debug_aranges
                0x0000000000000390       0x20 ./build/lwip.a(inet_chksum.o)
 .debug_aranges
                0x00000000000003b0       0x20 ./build/lwip.a(ip_addr.o)
 .debug_aranges
                0x00000000000003d0       0x20 ./build/lwip.a(ip.o)
 .debug_aranges
                0x00000000000003f0       0x20 ./build/lwip.a(ip_frag.o)
 .debug_aranges
                0x0000000000000410       0x20 ./build/lwip.a(etharp.o)
 .debug_aranges
                0x0000000000000430       0x20 ./build/lwip.a(sys_arch.o)
 .debug_aranges
                0x0000000000000450       0x20 ./build/lwip.a(api_lib.o)
 .debug_aranges
                0x0000000000000470       0x20 ./build/lwip.a(api_msg.o)
 .debug_aranges
                0x0000000000000490       0x20 ./build/lwip.a(netbuf.o)
 .debug_aranges
                0x00000000000004b0       0x20 ./build/lwip.a(raw.o)
 .debug_aranges
                0x00000000000004d0       0x20 ./build/lwip.a(tcp_in.o)
 .debug_aranges
                0x00000000000004f0       0x20 ./build/axtls.a(tls1.o)
 .debug_aranges
                0x0000000000000510       0x20 ./build/axtls.a(tls1_clnt.o)
 .debug_aranges
                0x0000000000000530       0x20 ./build/axtls.a(tls1_svr.o)
 .debug_aranges
                0x0000000000000550       0x20 ./build/axtls.a(x509.o)
 .debug_aranges
                0x0000000000000570       0x20 ./build/axtls.a(axtls_esp_stubs.o)
 .debug_aranges
                0x0000000000000590       0x20 ./build/axtls.a(aes.o)
 .debug_aranges
                0x00000000000005b0       0x20 ./build/axtls.a(bigint.o)
 .debug_aranges
                0x00000000000005d0       0x20 ./build/axtls.a(crypto_misc.o)
 .debug_aranges
                0x00000000000005f0       0x20 ./build/axtls.a(hmac.o)
 .debug_aranges
                0x0000000000000610       0x20 ./build/axtls.a(md5.o)
 .debug_aranges
                0x0000000000000630       0x20 ./build/axtls.a(rc4.o)
 .debug_aranges
                0x0000000000000650       0x20 ./build/axtls.a(rsa.o)
 .debug_aranges
                0x0000000000000670       0x20 ./build/axtls.a(sha1.o)
 .debug_aranges
                0x0000000000000690       0x20 ./build/axtls.a(sha256.o)
 .debug_aranges
                0x00000000000006b0       0x20 ./build/axtls.a(sha384.o)
 .debug_aranges
                0x00000000000006d0       0x20 ./build/axtls.a(sha512.o)
 .debug_aranges
                0x00000000000006f0       0x20 ./build/axtls.a(asn1.o)
 .debug_aranges
                0x0000000000000710       0x20 ./build/axtls.a(loader.o)
 .debug_aranges
                0x0000000000000730       0x28 ./build/core.a(sdk_compat.o)
 .debug_aranges
                0x0000000000000758       0x20 /root/ESP8266/esp-open-sdk/xtensa-lx106-elf/lib/gcc/xtensa-lx106-elf/4.8.2/libgcc.a(_divsi3.o)
 .debug_aranges
                0x0000000000000778       0x20 /root/ESP8266/esp-open-sdk/xtensa-lx106-elf/lib/gcc/xtensa-lx106-elf/4.8.2/libgcc.a(_modsi3.o)
 .debug_aranges
                0x0000000000000798       0x20 /root/ESP8266/esp-open-sdk/xtensa-lx106-elf/lib/gcc/xtensa-lx106-elf/4.8.2/libgcc.a(_udivsi3.o)
 .debug_aranges
                0x00000000000007b8       0x20 /root/ESP8266/esp-open-sdk/xtensa-lx106-elf/lib/gcc/xtensa-lx106-elf/4.8.2/libgcc.a(_umodsi3.o)
 .debug_aranges
                0x00000000000007d8       0x20 /root/ESP8266/esp-open-sdk/xtensa-lx106-elf/lib/gcc/xtensa-lx106-elf/4.8.2/libgcc.a(_ashrdi3.o)
 .debug_aranges
                0x00000000000007f8       0x20 /root/ESP8266/esp-open-sdk/xtensa-lx106-elf/lib/gcc/xtensa-lx106-elf/4.8.2/libgcc.a(_addsubsf3.o)
 .debug_aranges
                0x0000000000000818       0x20 /root/ESP8266/esp-open-sdk/xtensa-lx106-elf/lib/gcc/xtensa-lx106-elf/4.8.2/libgcc.a(_mulsf3.o)
 .debug_aranges
                0x0000000000000838       0x20 /root/ESP8266/esp-open-sdk/xtensa-lx106-elf/lib/gcc/xtensa-lx106-elf/4.8.2/libgcc.a(_divsf3.o)
 .debug_aranges
                0x0000000000000858       0x20 /root/ESP8266/esp-open-sdk/xtensa-lx106-elf/lib/gcc/xtensa-lx106-elf/4.8.2/libgcc.a(_fixsfsi.o)
 .debug_aranges
                0x0000000000000878       0x20 /root/ESP8266/esp-open-sdk/xtensa-lx106-elf/lib/gcc/xtensa-lx106-elf/4.8.2/libgcc.a(_fixunssfsi.o)
 .debug_aranges
                0x0000000000000898       0x20 /root/ESP8266/esp-open-sdk/xtensa-lx106-elf/lib/gcc/xtensa-lx106-elf/4.8.2/libgcc.a(_floatsisf.o)
 .debug_aranges
                0x00000000000008b8       0x20 /root/ESP8266/esp-open-sdk/xtensa-lx106-elf/lib/gcc/xtensa-lx106-elf/4.8.2/libgcc.a(_addsubdf3.o)
 .debug_aranges
                0x00000000000008d8       0x20 /root/ESP8266/esp-open-sdk/xtensa-lx106-elf/lib/gcc/xtensa-lx106-elf/4.8.2/libgcc.a(_muldf3.o)
 .debug_aranges
                0x00000000000008f8       0x20 /root/ESP8266/esp-open-sdk/xtensa-lx106-elf/lib/gcc/xtensa-lx106-elf/4.8.2/libgcc.a(_divdf3.o)
 .debug_aranges
                0x0000000000000918       0x20 /root/ESP8266/esp-open-sdk/xtensa-lx106-elf/lib/gcc/xtensa-lx106-elf/4.8.2/libgcc.a(_fixdfsi.o)
 .debug_aranges
                0x0000000000000938       0x20 /root/ESP8266/esp-open-sdk/xtensa-lx106-elf/lib/gcc/xtensa-lx106-elf/4.8.2/libgcc.a(_floatsidf.o)
 .debug_aranges
                0x0000000000000958       0x20 /root/ESP8266/esp-open-sdk/xtensa-lx106-elf/lib/gcc/xtensa-lx106-elf/4.8.2/libgcc.a(_truncdfsf2.o)
 .debug_aranges
                0x0000000000000978       0x20 /root/ESP8266/esp-open-sdk/xtensa-lx106-elf/lib/gcc/xtensa-lx106-elf/4.8.2/libgcc.a(_extendsfdf2.o)
 .debug_aranges
                0x0000000000000998       0x20 /root/ESP8266/esp-open-sdk/xtensa-lx106-elf/lib/gcc/xtensa-lx106-elf/4.8.2/libgcc.a(_muldi3.o)
 .debug_aranges
                0x00000000000009b8       0x20 /root/ESP8266/esp-open-sdk/xtensa-lx106-elf/lib/gcc/xtensa-lx106-elf/4.8.2/libgcc.a(_popcountsi2.o)
 .debug_aranges
                0x00000000000009d8       0x20 /root/ESP8266/esp-open-sdk/xtensa-lx106-elf/lib/gcc/xtensa-lx106-elf/4.8.2/libgcc.a(_divdi3.o)
 .debug_aranges
                0x00000000000009f8       0x20 /root/ESP8266/esp-open-sdk/xtensa-lx106-elf/lib/gcc/xtensa-lx106-elf/4.8.2/libgcc.a(_udivdi3.o)
 .debug_aranges
                0x0000000000000a18       0x20 /root/ESP8266/esp-open-sdk/xtensa-lx106-elf/lib/gcc/xtensa-lx106-elf/4.8.2/libgcc.a(_umoddi3.o)
 .debug_aranges
                0x0000000000000a38       0x20 /root/ESP8266/esp-open-sdk/xtensa-lx106-elf/lib/gcc/xtensa-lx106-elf/4.8.2/libgcc.a(_umulsidi3.o)
 .debug_aranges
                0x0000000000000a58       0x18 /root/ESP8266/esp-open-sdk/xtensa-lx106-elf/lib/gcc/xtensa-lx106-elf/4.8.2/libgcc.a(_popcount_tab.o)
 .debug_aranges
                0x0000000000000a70       0x20 ../../libc/xtensa-lx106-elf/lib/libc.a(lib_a-atoi.o)
 .debug_aranges
                0x0000000000000a90       0x20 ../../libc/xtensa-lx106-elf/lib/libc.a(lib_a-bzero.o)
 .debug_aranges
                0x0000000000000ab0       0x20 ../../libc/xtensa-lx106-elf/lib/libc.a(lib_a-calloc.o)
 .debug_aranges
                0x0000000000000ad0       0x20 ../../libc/xtensa-lx106-elf/lib/libc.a(lib_a-errno.o)
 .debug_aranges
                0x0000000000000af0       0x18 ../../libc/xtensa-lx106-elf/lib/libc.a(lib_a-impure.o)
 .debug_aranges
                0x0000000000000b08       0x20 ../../libc/xtensa-lx106-elf/lib/libc.a(lib_a-malloc.o)
 .debug_aranges
                0x0000000000000b28       0x20 ../../libc/xtensa-lx106-elf/lib/libc.a(lib_a-memcmp.o)
 .debug_aranges
                0x0000000000000b48       0x20 ../../libc/xtensa-lx106-elf/lib/libc.a(lib_a-memcpy.o)
 .debug_aranges
                0x0000000000000b68       0x20 ../../libc/xtensa-lx106-elf/lib/libc.a(lib_a-memset.o)
 .debug_aranges
                0x0000000000000b88       0x20 ../../libc/xtensa-lx106-elf/lib/libc.a(lib_a-mstats.o)
 .debug_aranges
                0x0000000000000ba8       0x20 ../../libc/xtensa-lx106-elf/lib/libc.a(lib_a-nano-callocr.o)
 .debug_aranges
                0x0000000000000bc8       0x20 ../../libc/xtensa-lx106-elf/lib/libc.a(lib_a-nano-freer.o)
 .debug_aranges
                0x0000000000000be8       0x20 ../../libc/xtensa-lx106-elf/lib/libc.a(lib_a-nano-mallinfor.o)
 .debug_aranges
                0x0000000000000c08       0x20 ../../libc/xtensa-lx106-elf/lib/libc.a(lib_a-nano-mallocr.o)
 .debug_aranges
                0x0000000000000c28       0x20 ../../libc/xtensa-lx106-elf/lib/libc.a(lib_a-nano-malloptr.o)
 .debug_aranges
                0x0000000000000c48       0x20 ../../libc/xtensa-lx106-elf/lib/libc.a(lib_a-nano-mallstatsr.o)
 .debug_aranges
                0x0000000000000c68       0x20 ../../libc/xtensa-lx106-elf/lib/libc.a(lib_a-printf.o)
 .debug_aranges
                0x0000000000000c88       0x20 ../../libc/xtensa-lx106-elf/lib/libc.a(lib_a-putchar.o)
 .debug_aranges
                0x0000000000000ca8       0x20 ../../libc/xtensa-lx106-elf/lib/libc.a(lib_a-putc.o)
 .debug_aranges
                0x0000000000000cc8       0x20 ../../libc/xtensa-lx106-elf/lib/libc.a(lib_a-puts.o)
 .debug_aranges
                0x0000000000000ce8       0x20 ../../libc/xtensa-lx106-elf/lib/libc.a(lib_a-rand.o)
 .debug_aranges
                0x0000000000000d08       0x20 ../../libc/xtensa-lx106-elf/lib/libc.a(lib_a-realloc.o)
 .debug_aranges
                0x0000000000000d28       0x20 ../../libc/xtensa-lx106-elf/lib/libc.a(lib_a-sprintf.o)
 .debug_aranges
                0x0000000000000d48       0x20 ../../libc/xtensa-lx106-elf/lib/libc.a(lib_a-strcmp.o)
 .debug_aranges
                0x0000000000000d68       0x20 ../../libc/xtensa-lx106-elf/lib/libc.a(lib_a-strcpy.o)
 .debug_aranges
                0x0000000000000d88       0x20 ../../libc/xtensa-lx106-elf/lib/libc.a(lib_a-strlen.o)
 .debug_aranges
                0x0000000000000da8       0x20 ../../libc/xtensa-lx106-elf/lib/libc.a(lib_a-strncmp.o)
 .debug_aranges
                0x0000000000000dc8       0x20 ../../libc/xtensa-lx106-elf/lib/libc.a(lib_a-strncpy.o)
 .debug_aranges
                0x0000000000000de8       0x20 ../../libc/xtensa-lx106-elf/lib/libc.a(lib_a-strrchr.o)
 .debug_aranges
                0x0000000000000e08       0x20 ../../libc/xtensa-lx106-elf/lib/libc.a(lib_a-strtol.o)
 .debug_aranges
                0x0000000000000e28       0x20 ../../libc/xtensa-lx106-elf/lib/libc.a(lib_a-syssbrk.o)
 .debug_aranges
                0x0000000000000e48       0x20 ../../libc/xtensa-lx106-elf/lib/libc.a(lib_a-wbuf.o)
 .debug_aranges
                0x0000000000000e68       0x20 ../../libc/xtensa-lx106-elf/lib/libc.a(lib_a-wsetup.o)
 .debug_aranges
                0x0000000000000e88       0x20 ../../libc/xtensa-lx106-elf/lib/libc.a(lock.o)
 .debug_aranges
                0x0000000000000ea8       0x18 ../../libc/xtensa-lx106-elf/lib/libc.a(lib_a-ctype_.o)
 .debug_aranges
                0x0000000000000ec0       0x20 ../../libc/xtensa-lx106-elf/lib/libc.a(lib_a-fflush.o)
 .debug_aranges
                0x0000000000000ee0       0x20 ../../libc/xtensa-lx106-elf/lib/libc.a(lib_a-findfp.o)
 .debug_aranges
                0x0000000000000f00       0x20 ../../libc/xtensa-lx106-elf/lib/libc.a(lib_a-fprintf.o)
 .debug_aranges
                0x0000000000000f20       0x20 ../../libc/xtensa-lx106-elf/lib/libc.a(lib_a-fvwrite.o)
 .debug_aranges
                0x0000000000000f40       0x20 ../../libc/xtensa-lx106-elf/lib/libc.a(lib_a-fwalk.o)
 .debug_aranges
                0x0000000000000f60       0x20 ../../libc/xtensa-lx106-elf/lib/libc.a(lib_a-makebuf.o)
 .debug_aranges
                0x0000000000000f80       0x20 ../../libc/xtensa-lx106-elf/lib/libc.a(lib_a-memchr.o)
 .debug_aranges
                0x0000000000000fa0       0x20 ../../libc/xtensa-lx106-elf/lib/libc.a(lib_a-memmove.o)
 .debug_aranges
                0x0000000000000fc0       0x20 ../../libc/xtensa-lx106-elf/lib/libc.a(lib_a-nano-reallocr.o)
 .debug_aranges
                0x0000000000000fe0       0x20 ../../libc/xtensa-lx106-elf/lib/libc.a(lib_a-nano-svfprintf.o)
 .debug_aranges
                0x0000000000001000       0x20 ../../libc/xtensa-lx106-elf/lib/libc.a(lib_a-nano-vfprintf_i.o)
 .debug_aranges
                0x0000000000001020       0x20 ../../libc/xtensa-lx106-elf/lib/libc.a(lib_a-nano-vfprintf.o)
 .debug_aranges
                0x0000000000001040       0x20 ../../libc/xtensa-lx106-elf/lib/libc.a(lib_a-stdio.o)
 .debug_aranges
                0x0000000000001060       0x20 ../../libc/xtensa-lx106-elf/lib/libc.a(lib_a-strchr.o)
 .debug_aranges
                0x0000000000001080       0x20 ../../libc/xtensa-lx106-elf/lib/libc.a(isatty.o)
 .debug_aranges
                0x00000000000010a0       0x20 ../../libc/xtensa-lx106-elf/lib/libc.a(lib_a-fclose.o)
 .debug_aranges
                0x00000000000010c0       0x20 ../../libc/xtensa-lx106-elf/lib/libc.a(lib_a-fputwc.o)
 .debug_aranges
                0x00000000000010e0       0x20 ../../libc/xtensa-lx106-elf/lib/libc.a(lib_a-locale.o)
 .debug_aranges
                0x0000000000001100       0x20 ../../libc/xtensa-lx106-elf/lib/libc.a(lib_a-nano-msizer.o)
 .debug_aranges
                0x0000000000001120       0x20 ../../libc/xtensa-lx106-elf/lib/libc.a(lib_a-wcrtomb.o)
 .debug_aranges
                0x0000000000001140       0x20 ../../libc/xtensa-lx106-elf/lib/libc.a(lib_a-wctomb_r.o)
 .debug_aranges
                0x0000000000001160       0x28 ./build/core.a(newlib_syscalls.o)

.debug_frame    0x0000000000000000     0x5b78
 .debug_frame   0x0000000000000000       0x58 ./build/program.a(http_get_ssl.o)
 .debug_frame   0x0000000000000058      0x260 ./build/freertos.a(queue.o)
 .debug_frame   0x00000000000002b8      0x450 ./build/freertos.a(tasks.o)
 .debug_frame   0x0000000000000708      0x15c ./build/freertos.a(timers.o)
 .debug_frame   0x0000000000000864      0x12c ./build/freertos.a(port.o)
 .debug_frame   0x0000000000000990       0x60 ./build/freertos.a(list.o)
 .debug_frame   0x00000000000009f0       0x64 ./build/lwip.a(esp_interface.o)
 .debug_frame   0x0000000000000a54       0xa0 ./build/lwip.a(netdb.o)
 .debug_frame   0x0000000000000af4      0x3a0 ./build/lwip.a(sockets.o)
 .debug_frame   0x0000000000000e94      0x1f8 ./build/lwip.a(tcpip.o)
 .debug_frame   0x000000000000108c      0x344 ./build/lwip.a(dhcp.o)
 .debug_frame   0x00000000000013d0      0x124 ./build/lwip.a(dns.o)
 .debug_frame   0x00000000000014f4       0x30 ./build/lwip.a(init.o)
 .debug_frame   0x0000000000001524      0x168 ./build/lwip.a(netif.o)
 .debug_frame   0x000000000000168c      0x22c ./build/lwip.a(pbuf.o)
 .debug_frame   0x00000000000018b8       0x20 ./build/lwip.a(stats.o)
 .debug_frame   0x00000000000018d8      0x40c ./build/lwip.a(tcp.o)
 .debug_frame   0x0000000000001ce4      0x224 ./build/lwip.a(tcp_out.o)
 .debug_frame   0x0000000000001f08      0x168 ./build/lwip.a(timers.o)
 .debug_frame   0x0000000000002070      0x168 ./build/lwip.a(udp.o)
 .debug_frame   0x00000000000021d8       0x6c ./build/lwip.a(icmp.o)
 .debug_frame   0x0000000000002244       0xc0 ./build/lwip.a(inet_chksum.o)
 .debug_frame   0x0000000000002304       0xbc ./build/lwip.a(ip_addr.o)
 .debug_frame   0x00000000000023c0       0xa0 ./build/lwip.a(ip.o)
 .debug_frame   0x0000000000002460       0x38 ./build/lwip.a(ip_frag.o)
 .debug_frame   0x0000000000002498      0x200 ./build/lwip.a(etharp.o)
 .debug_frame   0x0000000000002698      0x2a8 ./build/lwip.a(sys_arch.o)
 .debug_frame   0x0000000000002940      0x2e8 ./build/lwip.a(api_lib.o)
 .debug_frame   0x0000000000002c28      0x41c ./build/lwip.a(api_msg.o)
 .debug_frame   0x0000000000003044      0x124 ./build/lwip.a(netbuf.o)
 .debug_frame   0x0000000000003168      0x104 ./build/lwip.a(raw.o)
 .debug_frame   0x000000000000326c       0x7c ./build/lwip.a(tcp_in.o)
 .debug_frame   0x00000000000032e8      0x5b8 ./build/axtls.a(tls1.o)
 .debug_frame   0x00000000000038a0       0xc0 ./build/axtls.a(tls1_clnt.o)
 .debug_frame   0x0000000000003960       0x88 ./build/axtls.a(tls1_svr.o)
 .debug_frame   0x00000000000039e8       0xbc ./build/axtls.a(x509.o)
 .debug_frame   0x0000000000003aa4       0x60 ./build/axtls.a(axtls_esp_stubs.o)
 .debug_frame   0x0000000000003b04       0x98 ./build/axtls.a(aes.o)
 .debug_frame   0x0000000000003b9c      0x538 ./build/axtls.a(bigint.o)
 .debug_frame   0x00000000000040d4       0xa8 ./build/axtls.a(crypto_misc.o)
 .debug_frame   0x000000000000417c       0x78 ./build/axtls.a(hmac.o)
 .debug_frame   0x00000000000041f4       0xb4 ./build/axtls.a(md5.o)
 .debug_frame   0x00000000000042a8       0x44 ./build/axtls.a(rc4.o)
 .debug_frame   0x00000000000042ec      0x130 ./build/axtls.a(rsa.o)
 .debug_frame   0x000000000000441c       0x94 ./build/axtls.a(sha1.o)
 .debug_frame   0x00000000000044b0       0xa4 ./build/axtls.a(sha256.o)
 .debug_frame   0x0000000000004554       0x68 ./build/axtls.a(sha384.o)
 .debug_frame   0x00000000000045bc       0xa4 ./build/axtls.a(sha512.o)
 .debug_frame   0x0000000000004660      0x274 ./build/axtls.a(asn1.o)
 .debug_frame   0x00000000000048d4       0xac ./build/axtls.a(loader.o)
 .debug_frame   0x0000000000004980       0x58 ./build/core.a(sdk_compat.o)
 .debug_frame   0x00000000000049d8       0x3c /root/ESP8266/esp-open-sdk/xtensa-lx106-elf/lib/gcc/xtensa-lx106-elf/4.8.2/libgcc.a(_muldi3.o)
 .debug_frame   0x0000000000004a14       0x20 /root/ESP8266/esp-open-sdk/xtensa-lx106-elf/lib/gcc/xtensa-lx106-elf/4.8.2/libgcc.a(_popcountsi2.o)
 .debug_frame   0x0000000000004a34       0x38 /root/ESP8266/esp-open-sdk/xtensa-lx106-elf/lib/gcc/xtensa-lx106-elf/4.8.2/libgcc.a(_divdi3.o)
 .debug_frame   0x0000000000004a6c       0x38 /root/ESP8266/esp-open-sdk/xtensa-lx106-elf/lib/gcc/xtensa-lx106-elf/4.8.2/libgcc.a(_udivdi3.o)
 .debug_frame   0x0000000000004aa4       0x3c /root/ESP8266/esp-open-sdk/xtensa-lx106-elf/lib/gcc/xtensa-lx106-elf/4.8.2/libgcc.a(_umoddi3.o)
 .debug_frame   0x0000000000004ae0       0x50 ../../libc/xtensa-lx106-elf/lib/libc.a(lib_a-atoi.o)
 .debug_frame   0x0000000000004b30       0x20 ../../libc/xtensa-lx106-elf/lib/libc.a(lib_a-bzero.o)
 .debug_frame   0x0000000000004b50       0x30 ../../libc/xtensa-lx106-elf/lib/libc.a(lib_a-calloc.o)
 .debug_frame   0x0000000000004b80       0x20 ../../libc/xtensa-lx106-elf/lib/libc.a(lib_a-errno.o)
 .debug_frame   0x0000000000004ba0       0x50 ../../libc/xtensa-lx106-elf/lib/libc.a(lib_a-malloc.o)
 .debug_frame   0x0000000000004bf0       0x20 ../../libc/xtensa-lx106-elf/lib/libc.a(lib_a-memcmp.o)
 .debug_frame   0x0000000000004c10       0xb8 ../../libc/xtensa-lx106-elf/lib/libc.a(lib_a-mstats.o)
 .debug_frame   0x0000000000004cc8       0x38 ../../libc/xtensa-lx106-elf/lib/libc.a(lib_a-nano-callocr.o)
 .debug_frame   0x0000000000004d00       0x20 ../../libc/xtensa-lx106-elf/lib/libc.a(lib_a-nano-freer.o)
 .debug_frame   0x0000000000004d20       0x3c ../../libc/xtensa-lx106-elf/lib/libc.a(lib_a-nano-mallinfor.o)
 .debug_frame   0x0000000000004d5c       0x3c ../../libc/xtensa-lx106-elf/lib/libc.a(lib_a-nano-mallocr.o)
 .debug_frame   0x0000000000004d98       0x20 ../../libc/xtensa-lx106-elf/lib/libc.a(lib_a-nano-malloptr.o)
 .debug_frame   0x0000000000004db8       0x34 ../../libc/xtensa-lx106-elf/lib/libc.a(lib_a-nano-mallstatsr.o)
 .debug_frame   0x0000000000004dec       0x50 ../../libc/xtensa-lx106-elf/lib/libc.a(lib_a-printf.o)
 .debug_frame   0x0000000000004e3c       0x50 ../../libc/xtensa-lx106-elf/lib/libc.a(lib_a-putchar.o)
 .debug_frame   0x0000000000004e8c       0x54 ../../libc/xtensa-lx106-elf/lib/libc.a(lib_a-putc.o)
 .debug_frame   0x0000000000004ee0       0x58 ../../libc/xtensa-lx106-elf/lib/libc.a(lib_a-puts.o)
 .debug_frame   0x0000000000004f38       0x48 ../../libc/xtensa-lx106-elf/lib/libc.a(lib_a-rand.o)
 .debug_frame   0x0000000000004f80       0x30 ../../libc/xtensa-lx106-elf/lib/libc.a(lib_a-realloc.o)
 .debug_frame   0x0000000000004fb0       0x50 ../../libc/xtensa-lx106-elf/lib/libc.a(lib_a-sprintf.o)
 .debug_frame   0x0000000000005000       0x20 ../../libc/xtensa-lx106-elf/lib/libc.a(lib_a-strncmp.o)
 .debug_frame   0x0000000000005020       0x34 ../../libc/xtensa-lx106-elf/lib/libc.a(lib_a-strrchr.o)
 .debug_frame   0x0000000000005054       0x5c ../../libc/xtensa-lx106-elf/lib/libc.a(lib_a-strtol.o)
 .debug_frame   0x00000000000050b0       0x30 ../../libc/xtensa-lx106-elf/lib/libc.a(lib_a-syssbrk.o)
 .debug_frame   0x00000000000050e0       0x54 ../../libc/xtensa-lx106-elf/lib/libc.a(lib_a-wbuf.o)
 .debug_frame   0x0000000000005134       0x38 ../../libc/xtensa-lx106-elf/lib/libc.a(lib_a-wsetup.o)
 .debug_frame   0x000000000000516c       0x30 ../../libc/xtensa-lx106-elf/lib/libc.a(lock.o)
 .debug_frame   0x000000000000519c       0x84 ../../libc/xtensa-lx106-elf/lib/libc.a(lib_a-fflush.o)
 .debug_frame   0x0000000000005220      0x1f4 ../../libc/xtensa-lx106-elf/lib/libc.a(lib_a-findfp.o)
 .debug_frame   0x0000000000005414       0x50 ../../libc/xtensa-lx106-elf/lib/libc.a(lib_a-fprintf.o)
 .debug_frame   0x0000000000005464       0x3c ../../libc/xtensa-lx106-elf/lib/libc.a(lib_a-fvwrite.o)
 .debug_frame   0x00000000000054a0       0x68 ../../libc/xtensa-lx106-elf/lib/libc.a(lib_a-fwalk.o)
 .debug_frame   0x0000000000005508       0x40 ../../libc/xtensa-lx106-elf/lib/libc.a(lib_a-makebuf.o)
 .debug_frame   0x0000000000005548       0x20 ../../libc/xtensa-lx106-elf/lib/libc.a(lib_a-memchr.o)
 .debug_frame   0x0000000000005568       0x20 ../../libc/xtensa-lx106-elf/lib/libc.a(lib_a-memmove.o)
 .debug_frame   0x0000000000005588       0x38 ../../libc/xtensa-lx106-elf/lib/libc.a(lib_a-nano-reallocr.o)
 .debug_frame   0x00000000000055c0       0x90 ../../libc/xtensa-lx106-elf/lib/libc.a(lib_a-nano-svfprintf.o)
 .debug_frame   0x0000000000005650       0x68 ../../libc/xtensa-lx106-elf/lib/libc.a(lib_a-nano-vfprintf_i.o)
 .debug_frame   0x00000000000056b8       0xd0 ../../libc/xtensa-lx106-elf/lib/libc.a(lib_a-nano-vfprintf.o)
 .debug_frame   0x0000000000005788       0xbc ../../libc/xtensa-lx106-elf/lib/libc.a(lib_a-stdio.o)
 .debug_frame   0x0000000000005844       0x20 ../../libc/xtensa-lx106-elf/lib/libc.a(lib_a-strchr.o)
 .debug_frame   0x0000000000005864       0x30 ../../libc/xtensa-lx106-elf/lib/libc.a(isatty.o)
 .debug_frame   0x0000000000005894       0x58 ../../libc/xtensa-lx106-elf/lib/libc.a(lib_a-fclose.o)
 .debug_frame   0x00000000000058ec       0x94 ../../libc/xtensa-lx106-elf/lib/libc.a(lib_a-fputwc.o)
 .debug_frame   0x0000000000005980       0xb4 ../../libc/xtensa-lx106-elf/lib/libc.a(lib_a-locale.o)
 .debug_frame   0x0000000000005a34       0x20 ../../libc/xtensa-lx106-elf/lib/libc.a(lib_a-nano-msizer.o)
 .debug_frame   0x0000000000005a54       0x5c ../../libc/xtensa-lx106-elf/lib/libc.a(lib_a-wcrtomb.o)
 .debug_frame   0x0000000000005ab0       0x50 ../../libc/xtensa-lx106-elf/lib/libc.a(lib_a-wctomb_r.o)
 .debug_frame   0x0000000000005b00       0x78 ./build/core.a(newlib_syscalls.o)

.debug_loc      0x0000000000000000    0x273a6
 .debug_loc     0x0000000000000000      0x36c ./build/program.a(http_get_ssl.o)
 .debug_loc     0x000000000000036c      0xa5f ./build/freertos.a(queue.o)
 .debug_loc     0x0000000000000dcb      0xe52 ./build/freertos.a(tasks.o)
 .debug_loc     0x0000000000001c1d      0x7f0 ./build/freertos.a(timers.o)
 .debug_loc     0x000000000000240d      0x1f4 ./build/freertos.a(port.o)
 .debug_loc     0x0000000000002601       0x7a ./build/freertos.a(list.o)
 .debug_loc     0x000000000000267b       0xf5 ./build/lwip.a(esp_interface.o)
 .debug_loc     0x0000000000002770      0x4d8 ./build/lwip.a(netdb.o)
 .debug_loc     0x0000000000002c48     0x28e6 ./build/lwip.a(sockets.o)
 .debug_loc     0x000000000000552e      0x543 ./build/lwip.a(tcpip.o)
 .debug_loc     0x0000000000005a71     0x18e6 ./build/lwip.a(dhcp.o)
 .debug_loc     0x0000000000007357      0x827 ./build/lwip.a(dns.o)
 .debug_loc     0x0000000000007b7e      0x5a2 ./build/lwip.a(netif.o)
 .debug_loc     0x0000000000008120      0xec9 ./build/lwip.a(pbuf.o)
 .debug_loc     0x0000000000008fe9     0x110c ./build/lwip.a(tcp.o)
 .debug_loc     0x000000000000a0f5     0x1158 ./build/lwip.a(tcp_out.o)
 .debug_loc     0x000000000000b24d      0x2e3 ./build/lwip.a(timers.o)
 .debug_loc     0x000000000000b530      0x8f9 ./build/lwip.a(udp.o)
 .debug_loc     0x000000000000be29      0x20c ./build/lwip.a(icmp.o)
 .debug_loc     0x000000000000c035      0x947 ./build/lwip.a(inet_chksum.o)
 .debug_loc     0x000000000000c97c      0x573 ./build/lwip.a(ip_addr.o)
 .debug_loc     0x000000000000ceef      0x5d5 ./build/lwip.a(ip.o)
 .debug_loc     0x000000000000d4c4      0x386 ./build/lwip.a(ip_frag.o)
 .debug_loc     0x000000000000d84a      0xeb3 ./build/lwip.a(etharp.o)
 .debug_loc     0x000000000000e6fd      0x783 ./build/lwip.a(sys_arch.o)
 .debug_loc     0x000000000000ee80      0xb28 ./build/lwip.a(api_lib.o)
 .debug_loc     0x000000000000f9a8     0x11eb ./build/lwip.a(api_msg.o)
 .debug_loc     0x0000000000010b93      0x200 ./build/lwip.a(netbuf.o)
 .debug_loc     0x0000000000010d93      0x42d ./build/lwip.a(raw.o)
 .debug_loc     0x00000000000111c0      0x78b ./build/lwip.a(tcp_in.o)
 .debug_loc     0x000000000001194b     0x281d ./build/axtls.a(tls1.o)
 .debug_loc     0x0000000000014168      0x877 ./build/axtls.a(tls1_clnt.o)
 .debug_loc     0x00000000000149df      0xa00 ./build/axtls.a(tls1_svr.o)
 .debug_loc     0x00000000000153df      0x70b ./build/axtls.a(x509.o)
 .debug_loc     0x0000000000015aea       0x63 ./build/axtls.a(axtls_esp_stubs.o)
 .debug_loc     0x0000000000015b4d     0x1959 ./build/axtls.a(aes.o)
 .debug_loc     0x00000000000174a6     0x22c9 ./build/axtls.a(bigint.o)
 .debug_loc     0x000000000001976f      0x16c ./build/axtls.a(crypto_misc.o)
 .debug_loc     0x00000000000198db      0x232 ./build/axtls.a(hmac.o)
 .debug_loc     0x0000000000019b0d      0x665 ./build/axtls.a(md5.o)
 .debug_loc     0x000000000001a172      0x211 ./build/axtls.a(rc4.o)
 .debug_loc     0x000000000001a383      0x916 ./build/axtls.a(rsa.o)
 .debug_loc     0x000000000001ac99      0x44e ./build/axtls.a(sha1.o)
 .debug_loc     0x000000000001b0e7     0x3fb9 ./build/axtls.a(sha256.o)
 .debug_loc     0x000000000001f0a0       0xbb ./build/axtls.a(sha384.o)
 .debug_loc     0x000000000001f15b      0x6fe ./build/axtls.a(sha512.o)
 .debug_loc     0x000000000001f859     0x1303 ./build/axtls.a(asn1.o)
 .debug_loc     0x0000000000020b5c      0x41d ./build/axtls.a(loader.o)
 .debug_loc     0x0000000000020f79       0x57 ./build/core.a(sdk_compat.o)
 .debug_loc     0x0000000000020fd0       0x50 /root/ESP8266/esp-open-sdk/xtensa-lx106-elf/lib/gcc/xtensa-lx106-elf/4.8.2/libgcc.a(_muldi3.o)
 .debug_loc     0x0000000000021020       0x77 /root/ESP8266/esp-open-sdk/xtensa-lx106-elf/lib/gcc/xtensa-lx106-elf/4.8.2/libgcc.a(_popcountsi2.o)
 .debug_loc     0x0000000000021097      0xb87 /root/ESP8266/esp-open-sdk/xtensa-lx106-elf/lib/gcc/xtensa-lx106-elf/4.8.2/libgcc.a(_divdi3.o)
 .debug_loc     0x0000000000021c1e      0xced /root/ESP8266/esp-open-sdk/xtensa-lx106-elf/lib/gcc/xtensa-lx106-elf/4.8.2/libgcc.a(_udivdi3.o)
 .debug_loc     0x000000000002290b      0xa45 /root/ESP8266/esp-open-sdk/xtensa-lx106-elf/lib/gcc/xtensa-lx106-elf/4.8.2/libgcc.a(_umoddi3.o)
 .debug_loc     0x0000000000023350       0x63 ../../libc/xtensa-lx106-elf/lib/libc.a(lib_a-atoi.o)
 .debug_loc     0x00000000000233b3       0x83 ../../libc/xtensa-lx106-elf/lib/libc.a(lib_a-bzero.o)
 .debug_loc     0x0000000000023436       0x58 ../../libc/xtensa-lx106-elf/lib/libc.a(lib_a-calloc.o)
 .debug_loc     0x000000000002348e       0x58 ../../libc/xtensa-lx106-elf/lib/libc.a(lib_a-malloc.o)
 .debug_loc     0x00000000000234e6      0x12d ../../libc/xtensa-lx106-elf/lib/libc.a(lib_a-memcmp.o)
 .debug_loc     0x0000000000023613       0xdc ../../libc/xtensa-lx106-elf/lib/libc.a(lib_a-mstats.o)
 .debug_loc     0x00000000000236ef       0x8c ../../libc/xtensa-lx106-elf/lib/libc.a(lib_a-nano-callocr.o)
 .debug_loc     0x000000000002377b      0x13d ../../libc/xtensa-lx106-elf/lib/libc.a(lib_a-nano-freer.o)
 .debug_loc     0x00000000000238b8       0xa9 ../../libc/xtensa-lx106-elf/lib/libc.a(lib_a-nano-mallinfor.o)
 .debug_loc     0x0000000000023961      0x222 ../../libc/xtensa-lx106-elf/lib/libc.a(lib_a-nano-mallocr.o)
 .debug_loc     0x0000000000023b83       0x21 ../../libc/xtensa-lx106-elf/lib/libc.a(lib_a-nano-malloptr.o)
 .debug_loc     0x0000000000023ba4       0x2c ../../libc/xtensa-lx106-elf/lib/libc.a(lib_a-nano-mallstatsr.o)
 .debug_loc     0x0000000000023bd0       0x97 ../../libc/xtensa-lx106-elf/lib/libc.a(lib_a-printf.o)
 .debug_loc     0x0000000000023c67       0x8c ../../libc/xtensa-lx106-elf/lib/libc.a(lib_a-putchar.o)
 .debug_loc     0x0000000000023cf3      0x129 ../../libc/xtensa-lx106-elf/lib/libc.a(lib_a-putc.o)
 .debug_loc     0x0000000000023e1c       0xe0 ../../libc/xtensa-lx106-elf/lib/libc.a(lib_a-puts.o)
 .debug_loc     0x0000000000023efc       0x52 ../../libc/xtensa-lx106-elf/lib/libc.a(lib_a-rand.o)
 .debug_loc     0x0000000000023f4e       0x58 ../../libc/xtensa-lx106-elf/lib/libc.a(lib_a-realloc.o)
 .debug_loc     0x0000000000023fa6       0xe2 ../../libc/xtensa-lx106-elf/lib/libc.a(lib_a-sprintf.o)
 .debug_loc     0x0000000000024088       0x8c ../../libc/xtensa-lx106-elf/lib/libc.a(lib_a-strncmp.o)
 .debug_loc     0x0000000000024114       0xd0 ../../libc/xtensa-lx106-elf/lib/libc.a(lib_a-strrchr.o)
 .debug_loc     0x00000000000241e4      0x38d ../../libc/xtensa-lx106-elf/lib/libc.a(lib_a-strtol.o)
 .debug_loc     0x0000000000024571       0x2c ../../libc/xtensa-lx106-elf/lib/libc.a(lib_a-syssbrk.o)
 .debug_loc     0x000000000002459d      0x121 ../../libc/xtensa-lx106-elf/lib/libc.a(lib_a-wbuf.o)
 .debug_loc     0x00000000000246be       0x6b ../../libc/xtensa-lx106-elf/lib/libc.a(lib_a-wsetup.o)
 .debug_loc     0x0000000000024729       0x21 ../../libc/xtensa-lx106-elf/lib/libc.a(lock.o)
 .debug_loc     0x000000000002474a      0x260 ../../libc/xtensa-lx106-elf/lib/libc.a(lib_a-fflush.o)
 .debug_loc     0x00000000000249aa      0x20a ../../libc/xtensa-lx106-elf/lib/libc.a(lib_a-findfp.o)
 .debug_loc     0x0000000000024bb4       0xbb ../../libc/xtensa-lx106-elf/lib/libc.a(lib_a-fprintf.o)
 .debug_loc     0x0000000000024c6f      0x4c3 ../../libc/xtensa-lx106-elf/lib/libc.a(lib_a-fvwrite.o)
 .debug_loc     0x0000000000025132      0x14a ../../libc/xtensa-lx106-elf/lib/libc.a(lib_a-fwalk.o)
 .debug_loc     0x000000000002527c      0x104 ../../libc/xtensa-lx106-elf/lib/libc.a(lib_a-makebuf.o)
 .debug_loc     0x0000000000025380       0x86 ../../libc/xtensa-lx106-elf/lib/libc.a(lib_a-memchr.o)
 .debug_loc     0x0000000000025406      0x121 ../../libc/xtensa-lx106-elf/lib/libc.a(lib_a-memmove.o)
 .debug_loc     0x0000000000025527      0x13c ../../libc/xtensa-lx106-elf/lib/libc.a(lib_a-nano-reallocr.o)
 .debug_loc     0x0000000000025663      0x58f ../../libc/xtensa-lx106-elf/lib/libc.a(lib_a-nano-svfprintf.o)
 .debug_loc     0x0000000000025bf2      0x5c0 ../../libc/xtensa-lx106-elf/lib/libc.a(lib_a-nano-vfprintf_i.o)
 .debug_loc     0x00000000000261b2      0x4be ../../libc/xtensa-lx106-elf/lib/libc.a(lib_a-nano-vfprintf.o)
 .debug_loc     0x0000000000026670      0x231 ../../libc/xtensa-lx106-elf/lib/libc.a(lib_a-stdio.o)
 .debug_loc     0x00000000000268a1       0x55 ../../libc/xtensa-lx106-elf/lib/libc.a(lib_a-strchr.o)
 .debug_loc     0x00000000000268f6       0x42 ../../libc/xtensa-lx106-elf/lib/libc.a(isatty.o)
 .debug_loc     0x0000000000026938       0xec ../../libc/xtensa-lx106-elf/lib/libc.a(lib_a-fclose.o)
 .debug_loc     0x0000000000026a24      0x21b ../../libc/xtensa-lx106-elf/lib/libc.a(lib_a-fputwc.o)
 .debug_loc     0x0000000000026c3f      0x12f ../../libc/xtensa-lx106-elf/lib/libc.a(lib_a-locale.o)
 .debug_loc     0x0000000000026d6e       0xac ../../libc/xtensa-lx106-elf/lib/libc.a(lib_a-nano-msizer.o)
 .debug_loc     0x0000000000026e1a      0x18a ../../libc/xtensa-lx106-elf/lib/libc.a(lib_a-wcrtomb.o)
 .debug_loc     0x0000000000026fa4      0x150 ../../libc/xtensa-lx106-elf/lib/libc.a(lib_a-wctomb_r.o)
 .debug_loc     0x00000000000270f4      0x2b2 ./build/core.a(newlib_syscalls.o)

.debug_ranges   0x0000000000000000     0x14a0
 .debug_ranges  0x0000000000000000       0x18 ./build/program.a(http_get_ssl.o)
 .debug_ranges  0x0000000000000018       0x70 ./build/freertos.a(queue.o)
 .debug_ranges  0x0000000000000088      0x1c8 ./build/freertos.a(tasks.o)
 .debug_ranges  0x0000000000000250       0x48 ./build/freertos.a(timers.o)
 .debug_ranges  0x0000000000000298       0x88 ./build/freertos.a(port.o)
 .debug_ranges  0x0000000000000320       0x28 ./build/freertos.a(list.o)
 .debug_ranges  0x0000000000000348       0xf0 ./build/lwip.a(sockets.o)
 .debug_ranges  0x0000000000000438      0x2b8 ./build/lwip.a(dhcp.o)
 .debug_ranges  0x00000000000006f0       0x48 ./build/lwip.a(dns.o)
 .debug_ranges  0x0000000000000738       0x48 ./build/lwip.a(netif.o)
 .debug_ranges  0x0000000000000780       0x60 ./build/lwip.a(pbuf.o)
 .debug_ranges  0x00000000000007e0      0x150 ./build/lwip.a(tcp.o)
 .debug_ranges  0x0000000000000930      0x110 ./build/lwip.a(tcp_out.o)
 .debug_ranges  0x0000000000000a40       0x28 ./build/lwip.a(icmp.o)
 .debug_ranges  0x0000000000000a68       0x30 ./build/lwip.a(ip.o)
 .debug_ranges  0x0000000000000a98       0xf0 ./build/lwip.a(etharp.o)
 .debug_ranges  0x0000000000000b88       0x18 ./build/lwip.a(api_msg.o)
 .debug_ranges  0x0000000000000ba0       0x28 ./build/lwip.a(tcp_in.o)
 .debug_ranges  0x0000000000000bc8      0x1a8 ./build/axtls.a(tls1.o)
 .debug_ranges  0x0000000000000d70       0x30 ./build/axtls.a(tls1_clnt.o)
 .debug_ranges  0x0000000000000da0       0x68 ./build/axtls.a(tls1_svr.o)
 .debug_ranges  0x0000000000000e08       0x18 ./build/axtls.a(x509.o)
 .debug_ranges  0x0000000000000e20       0xc8 ./build/axtls.a(aes.o)
 .debug_ranges  0x0000000000000ee8      0x1f0 ./build/axtls.a(bigint.o)
 .debug_ranges  0x00000000000010d8       0x20 ./build/axtls.a(sha1.o)
 .debug_ranges  0x00000000000010f8       0x28 ./build/axtls.a(sha512.o)
 .debug_ranges  0x0000000000001120      0x140 ./build/axtls.a(asn1.o)
 .debug_ranges  0x0000000000001260       0x18 ./build/core.a(sdk_compat.o)
 .debug_ranges  0x0000000000001278       0x60 /root/ESP8266/esp-open-sdk/xtensa-lx106-elf/lib/gcc/xtensa-lx106-elf/4.8.2/libgcc.a(_divdi3.o)
 .debug_ranges  0x00000000000012d8       0x60 /root/ESP8266/esp-open-sdk/xtensa-lx106-elf/lib/gcc/xtensa-lx106-elf/4.8.2/libgcc.a(_udivdi3.o)
 .debug_ranges  0x0000000000001338       0x98 /root/ESP8266/esp-open-sdk/xtensa-lx106-elf/lib/gcc/xtensa-lx106-elf/4.8.2/libgcc.a(_umoddi3.o)
 .debug_ranges  0x00000000000013d0       0x20 ../../libc/xtensa-lx106-elf/lib/libc.a(lib_a-nano-mallocr.o)
 .debug_ranges  0x00000000000013f0       0x20 ../../libc/xtensa-lx106-elf/lib/libc.a(lib_a-wsetup.o)
 .debug_ranges  0x0000000000001410       0x48 ../../libc/xtensa-lx106-elf/lib/libc.a(lib_a-nano-vfprintf_i.o)
 .debug_ranges  0x0000000000001458       0x48 ./build/core.a(newlib_syscalls.o)

.debug_str      0x0000000000000000     0x7ce2
 .debug_str     0x0000000000000000      0x8de ./build/program.a(http_get_ssl.o)
                                        0xa7f (size before relaxing)
 .debug_str     0x00000000000008de      0x57d ./build/freertos.a(queue.o)
                                        0x75f (size before relaxing)
 .debug_str     0x0000000000000e5b      0x700 ./build/freertos.a(tasks.o)
                                        0xb96 (size before relaxing)
 .debug_str     0x000000000000155b      0x37f ./build/freertos.a(timers.o)
                                        0x802 (size before relaxing)
 .debug_str     0x00000000000018da      0x27a ./build/freertos.a(port.o)
                                        0x5a0 (size before relaxing)
 .debug_str     0x0000000000001b54       0x7b ./build/freertos.a(list.o)
                                        0x2e9 (size before relaxing)
 .debug_str     0x0000000000001bcf      0x192 ./build/lwip.a(esp_interface.o)
                                        0x371 (size before relaxing)
 .debug_str     0x0000000000001d61      0x240 ./build/lwip.a(netdb.o)
                                        0x582 (size before relaxing)
 .debug_str     0x0000000000001fa1      0xa36 ./build/lwip.a(sockets.o)
                                        0xe80 (size before relaxing)
 .debug_str     0x00000000000029d7      0x274 ./build/lwip.a(tcpip.o)
                                        0x92a (size before relaxing)
 .debug_str     0x0000000000002c4b      0x5ac ./build/lwip.a(dhcp.o)
                                        0x9d4 (size before relaxing)
 .debug_str     0x00000000000031f7      0x204 ./build/lwip.a(dns.o)
                                        0x63a (size before relaxing)
 .debug_str     0x00000000000033fb       0x6e ./build/lwip.a(init.o)
                                        0x221 (size before relaxing)
 .debug_str     0x0000000000003469       0x36 ./build/lwip.a(memp.o)
                                        0x2b5 (size before relaxing)
 .debug_str     0x000000000000349f      0x170 ./build/lwip.a(netif.o)
                                        0x91d (size before relaxing)
 .debug_str     0x000000000000360f      0x1ab ./build/lwip.a(pbuf.o)
                                        0x5eb (size before relaxing)
 .debug_str     0x00000000000037ba       0x37 ./build/lwip.a(stats.o)
                                        0x2d9 (size before relaxing)
 .debug_str     0x00000000000037f1      0x409 ./build/lwip.a(tcp.o)
                                        0xb70 (size before relaxing)
 .debug_str     0x0000000000003bfa      0x198 ./build/lwip.a(tcp_out.o)
                                        0x9f3 (size before relaxing)
 .debug_str     0x0000000000003d92       0xe9 ./build/lwip.a(timers.o)
                                        0x7c1 (size before relaxing)
 .debug_str     0x0000000000003e7b      0x191 ./build/lwip.a(udp.o)
                                        0x86e (size before relaxing)
 .debug_str     0x000000000000400c       0x92 ./build/lwip.a(icmp.o)
                                        0x55f (size before relaxing)
 .debug_str     0x000000000000409e       0x96 ./build/lwip.a(inet_chksum.o)
                                        0x277 (size before relaxing)
 .debug_str     0x0000000000004134       0x82 ./build/lwip.a(ip_addr.o)
                                        0x318 (size before relaxing)
 .debug_str     0x00000000000041b6       0xac ./build/lwip.a(ip.o)
                                        0x797 (size before relaxing)
 .debug_str     0x0000000000004262       0x59 ./build/lwip.a(ip_frag.o)
                                        0x457 (size before relaxing)
 .debug_str     0x00000000000042bb      0x2f0 ./build/lwip.a(etharp.o)
                                        0x9d1 (size before relaxing)
 .debug_str     0x00000000000045ab      0x18f ./build/lwip.a(sys_arch.o)
                                        0x770 (size before relaxing)
 .debug_str     0x000000000000473a       0xce ./build/lwip.a(api_lib.o)
                                        0xb20 (size before relaxing)
 .debug_str     0x0000000000004808      0x20d ./build/lwip.a(api_msg.o)
                                        0xd32 (size before relaxing)
 .debug_str     0x0000000000004a15       0x7f ./build/lwip.a(netbuf.o)
                                        0x3f3 (size before relaxing)
 .debug_str     0x0000000000004a94       0x44 ./build/lwip.a(raw.o)
                                        0x562 (size before relaxing)
 .debug_str     0x0000000000004ad8      0x118 ./build/lwip.a(tcp_in.o)
                                        0xa36 (size before relaxing)
 .debug_str     0x0000000000004bf0      0x741 ./build/axtls.a(tls1.o)
                                        0xeff (size before relaxing)
 .debug_str     0x0000000000005331       0xd3 ./build/axtls.a(tls1_clnt.o)
                                        0x96e (size before relaxing)
 .debug_str     0x0000000000005404      0x15f ./build/axtls.a(tls1_svr.o)
                                        0x9d0 (size before relaxing)
 .debug_str     0x0000000000005563      0x329 ./build/axtls.a(x509.o)
                                        0x796 (size before relaxing)
 .debug_str     0x000000000000588c       0x3b ./build/axtls.a(axtls_esp_stubs.o)
                                        0x1dd (size before relaxing)
 .debug_str     0x00000000000058c7       0xc2 ./build/axtls.a(aes.o)
                                        0x2ec (size before relaxing)
 .debug_str     0x0000000000005989      0x250 ./build/axtls.a(bigint.o)
                                        0x560 (size before relaxing)
 .debug_str     0x0000000000005bd9       0xa7 ./build/axtls.a(crypto_misc.o)
                                        0x281 (size before relaxing)
 .debug_str     0x0000000000005c80       0x54 ./build/axtls.a(hmac.o)
                                        0x2db (size before relaxing)
 .debug_str     0x0000000000005cd4       0x67 ./build/axtls.a(md5.o)
                                        0x25c (size before relaxing)
 .debug_str     0x0000000000005d3b       0x3f ./build/axtls.a(rc4.o)
                                        0x1ee (size before relaxing)
 .debug_str     0x0000000000005d7a      0x101 ./build/axtls.a(rsa.o)
                                        0x49b (size before relaxing)
 .debug_str     0x0000000000005e7b       0x62 ./build/axtls.a(sha1.o)
                                        0x28f (size before relaxing)
 .debug_str     0x0000000000005edd       0x78 ./build/axtls.a(sha256.o)
                                        0x26b (size before relaxing)
 .debug_str     0x0000000000005f55       0x38 ./build/axtls.a(sha384.o)
                                        0x271 (size before relaxing)
 .debug_str     0x0000000000005f8d       0x5b ./build/axtls.a(sha512.o)
                                        0x288 (size before relaxing)
 .debug_str     0x0000000000005fe8      0x1b0 ./build/axtls.a(asn1.o)
                                        0x6bb (size before relaxing)
 .debug_str     0x0000000000006198       0x81 ./build/axtls.a(loader.o)
                                        0x740 (size before relaxing)
 .debug_str     0x0000000000006219       0x60 ./build/core.a(sdk_compat.o)
                                        0x18a (size before relaxing)
 .debug_str     0x0000000000006279      0x17b /root/ESP8266/esp-open-sdk/xtensa-lx106-elf/lib/gcc/xtensa-lx106-elf/4.8.2/libgcc.a(_muldi3.o)
                                        0x204 (size before relaxing)
 .debug_str     0x00000000000063f4       0x25 /root/ESP8266/esp-open-sdk/xtensa-lx106-elf/lib/gcc/xtensa-lx106-elf/4.8.2/libgcc.a(_popcountsi2.o)
                                        0x1e5 (size before relaxing)
 .debug_str     0x0000000000006419       0xc0 /root/ESP8266/esp-open-sdk/xtensa-lx106-elf/lib/gcc/xtensa-lx106-elf/4.8.2/libgcc.a(_divdi3.o)
                                        0x25a (size before relaxing)
 .debug_str     0x00000000000064d9        0xa /root/ESP8266/esp-open-sdk/xtensa-lx106-elf/lib/gcc/xtensa-lx106-elf/4.8.2/libgcc.a(_udivdi3.o)
                                        0x25b (size before relaxing)
 .debug_str     0x00000000000064e3        0xa /root/ESP8266/esp-open-sdk/xtensa-lx106-elf/lib/gcc/xtensa-lx106-elf/4.8.2/libgcc.a(_umoddi3.o)
                                        0x25b (size before relaxing)
 .debug_str     0x0000000000000000      0x1cf /root/ESP8266/esp-open-sdk/xtensa-lx106-elf/lib/gcc/xtensa-lx106-elf/4.8.2/libgcc.a(_popcount_tab.o)
 .debug_str     0x00000000000064ed      0x40a ../../libc/xtensa-lx106-elf/lib/libc.a(lib_a-atoi.o)
                                        0x50f (size before relaxing)
 .debug_str     0x00000000000068f7       0x78 ../../libc/xtensa-lx106-elf/lib/libc.a(lib_a-bzero.o)
                                        0x148 (size before relaxing)
 .debug_str     0x000000000000696f       0x35 ../../libc/xtensa-lx106-elf/lib/libc.a(lib_a-calloc.o)
                                        0x51c (size before relaxing)
 .debug_str     0x00000000000069a4       0x70 ../../libc/xtensa-lx106-elf/lib/libc.a(lib_a-errno.o)
                                        0x504 (size before relaxing)
 .debug_str     0x0000000000006a14       0x90 ../../libc/xtensa-lx106-elf/lib/libc.a(lib_a-impure.o)
                                        0x51c (size before relaxing)
 .debug_str     0x0000000000006aa4       0x3d ../../libc/xtensa-lx106-elf/lib/libc.a(lib_a-malloc.o)
                                        0x530 (size before relaxing)
 .debug_str     0x0000000000006ae1       0x2b ../../libc/xtensa-lx106-elf/lib/libc.a(lib_a-memcmp.o)
                                        0x143 (size before relaxing)
 .debug_str     0x0000000000006b0c       0x81 ../../libc/xtensa-lx106-elf/lib/libc.a(lib_a-mstats.o)
                                        0x5b7 (size before relaxing)
 .debug_str     0x0000000000006b8d       0x49 ../../libc/xtensa-lx106-elf/lib/libc.a(lib_a-nano-callocr.o)
                                        0x538 (size before relaxing)
 .debug_str     0x0000000000006bd6       0x44 ../../libc/xtensa-lx106-elf/lib/libc.a(lib_a-nano-freer.o)
                                        0x574 (size before relaxing)
 .debug_str     0x0000000000006c1a       0x49 ../../libc/xtensa-lx106-elf/lib/libc.a(lib_a-nano-mallinfor.o)
                                        0x601 (size before relaxing)
 .debug_str     0x0000000000006c63       0x2a ../../libc/xtensa-lx106-elf/lib/libc.a(lib_a-nano-mallocr.o)
                                        0x5a9 (size before relaxing)
 .debug_str     0x0000000000006c8d       0x21 ../../libc/xtensa-lx106-elf/lib/libc.a(lib_a-nano-malloptr.o)
                                        0x52f (size before relaxing)
 .debug_str     0x0000000000000000      0x5b0 ../../libc/xtensa-lx106-elf/lib/libc.a(lib_a-nano-mallstatsr.o)
 .debug_str     0x0000000000006cae       0xbf ../../libc/xtensa-lx106-elf/lib/libc.a(lib_a-printf.o)
                                        0x55f (size before relaxing)
 .debug_str     0x0000000000006d6d       0x3e ../../libc/xtensa-lx106-elf/lib/libc.a(lib_a-putchar.o)
                                        0x524 (size before relaxing)
 .debug_str     0x0000000000006dab       0x7a ../../libc/xtensa-lx106-elf/lib/libc.a(lib_a-putc.o)
                                        0x566 (size before relaxing)
 .debug_str     0x0000000000006e25       0x79 ../../libc/xtensa-lx106-elf/lib/libc.a(lib_a-puts.o)
                                        0x59b (size before relaxing)
 .debug_str     0x0000000000006e9e       0x29 ../../libc/xtensa-lx106-elf/lib/libc.a(lib_a-rand.o)
                                        0x513 (size before relaxing)
 .debug_str     0x0000000000006ec7       0x37 ../../libc/xtensa-lx106-elf/lib/libc.a(lib_a-realloc.o)
                                        0x521 (size before relaxing)
 .debug_str     0x0000000000006efe       0x4b ../../libc/xtensa-lx106-elf/lib/libc.a(lib_a-sprintf.o)
                                        0x563 (size before relaxing)
 .debug_str     0x0000000000006f49       0x34 ../../libc/xtensa-lx106-elf/lib/libc.a(lib_a-strncmp.o)
                                        0x145 (size before relaxing)
 .debug_str     0x0000000000006f7d       0x3b ../../libc/xtensa-lx106-elf/lib/libc.a(lib_a-strrchr.o)
                                        0x14a (size before relaxing)
 .debug_str     0x0000000000006fb8       0x53 ../../libc/xtensa-lx106-elf/lib/libc.a(lib_a-strtol.o)
                                        0x542 (size before relaxing)
 .debug_str     0x000000000000700b       0x7d ../../libc/xtensa-lx106-elf/lib/libc.a(lib_a-syssbrk.o)
                                        0x520 (size before relaxing)
 .debug_str     0x0000000000007088       0x46 ../../libc/xtensa-lx106-elf/lib/libc.a(lib_a-wbuf.o)
                                        0x540 (size before relaxing)
 .debug_str     0x00000000000070ce       0x37 ../../libc/xtensa-lx106-elf/lib/libc.a(lib_a-wsetup.o)
                                        0x53b (size before relaxing)
 .debug_str     0x0000000000007105       0x9a ../../libc/xtensa-lx106-elf/lib/libc.a(lock.o)
                                         0xd7 (size before relaxing)
 .debug_str     0x000000000000719f       0x79 ../../libc/xtensa-lx106-elf/lib/libc.a(lib_a-ctype_.o)
                                         0xc5 (size before relaxing)
 .debug_str     0x0000000000007218       0x5a ../../libc/xtensa-lx106-elf/lib/libc.a(lib_a-fflush.o)
                                        0x5ac (size before relaxing)
 .debug_str     0x0000000000007272      0x18d ../../libc/xtensa-lx106-elf/lib/libc.a(lib_a-findfp.o)
                                        0x70d (size before relaxing)
 .debug_str     0x00000000000073ff       0x36 ../../libc/xtensa-lx106-elf/lib/libc.a(lib_a-fprintf.o)
                                        0x562 (size before relaxing)
 .debug_str     0x0000000000007435       0x58 ../../libc/xtensa-lx106-elf/lib/libc.a(lib_a-fvwrite.o)
                                        0x5ae (size before relaxing)
 .debug_str     0x000000000000748d       0x38 ../../libc/xtensa-lx106-elf/lib/libc.a(lib_a-fwalk.o)
                                        0x521 (size before relaxing)
 .debug_str     0x00000000000074c5      0x108 ../../libc/xtensa-lx106-elf/lib/libc.a(lib_a-makebuf.o)
                                        0x61e (size before relaxing)
 .debug_str     0x00000000000075cd       0x34 ../../libc/xtensa-lx106-elf/lib/libc.a(lib_a-memchr.o)
                                        0x153 (size before relaxing)
 .debug_str     0x0000000000007601       0x35 ../../libc/xtensa-lx106-elf/lib/libc.a(lib_a-memmove.o)
                                        0x15e (size before relaxing)
 .debug_str     0x0000000000007636       0x23 ../../libc/xtensa-lx106-elf/lib/libc.a(lib_a-nano-reallocr.o)
                                        0x57c (size before relaxing)
 .debug_str     0x0000000000007659       0xd9 ../../libc/xtensa-lx106-elf/lib/libc.a(lib_a-nano-svfprintf.o)
                                        0x67f (size before relaxing)
 .debug_str     0x0000000000007732       0x84 ../../libc/xtensa-lx106-elf/lib/libc.a(lib_a-nano-vfprintf_i.o)
                                        0x62c (size before relaxing)
 .debug_str     0x00000000000077b6       0x3c ../../libc/xtensa-lx106-elf/lib/libc.a(lib_a-nano-vfprintf.o)
                                        0x6eb (size before relaxing)
 .debug_str     0x00000000000077f2       0x89 ../../libc/xtensa-lx106-elf/lib/libc.a(lib_a-stdio.o)
                                        0x577 (size before relaxing)
 .debug_str     0x000000000000787b       0x2b ../../libc/xtensa-lx106-elf/lib/libc.a(lib_a-strchr.o)
                                        0x13c (size before relaxing)
 .debug_str     0x00000000000078a6       0x32 ../../libc/xtensa-lx106-elf/lib/libc.a(isatty.o)
                                        0x5f7 (size before relaxing)
 .debug_str     0x00000000000078d8       0x51 ../../libc/xtensa-lx106-elf/lib/libc.a(lib_a-fclose.o)
                                        0x5af (size before relaxing)
 .debug_str     0x0000000000007929       0x52 ../../libc/xtensa-lx106-elf/lib/libc.a(lib_a-fputwc.o)
                                        0x5ac (size before relaxing)
 .debug_str     0x000000000000797b      0x23a ../../libc/xtensa-lx106-elf/lib/libc.a(lib_a-locale.o)
                                        0x779 (size before relaxing)
 .debug_str     0x0000000000007bb5        0xf ../../libc/xtensa-lx106-elf/lib/libc.a(lib_a-nano-msizer.o)
                                        0x55a (size before relaxing)
 .debug_str     0x0000000000007bc4       0x44 ../../libc/xtensa-lx106-elf/lib/libc.a(lib_a-wcrtomb.o)
                                        0x54d (size before relaxing)
 .debug_str     0x0000000000007c08       0x4d ../../libc/xtensa-lx106-elf/lib/libc.a(lib_a-wctomb_r.o)
                                        0x55c (size before relaxing)
 .debug_str     0x0000000000007c55       0x8d ./build/core.a(newlib_syscalls.o)
                                        0x578 (size before relaxing)
